# SymbolsHelper-Confirmed: 4:4.10.0 amd64
libnepomukcore.so.4 libnepomukcore4 #MINVER#
 _ZN8Nepomuk210Vocabulary3NCO10IsdnNumberEv@Base 4:4.9.3
 _ZN8Nepomuk210Vocabulary3NCO10contactUIDEv@Base 4:4.9.3
 _ZN8Nepomuk210Vocabulary3NCO10departmentEv@Base 4:4.9.3
 _ZN8Nepomuk210Vocabulary3NCO10imNicknameEv@Base 4:4.9.3
 _ZN8Nepomuk210Vocabulary3NCO10nameFamilyEv@Base 4:4.9.3
 _ZN8Nepomuk210Vocabulary3NCO10postalcodeEv@Base 4:4.9.3
 _ZN8Nepomuk210Vocabulary3NCO10websiteUrlEv@Base 4:4.9.3
 _ZN8Nepomuk210Vocabulary3NCO11AffiliationEv@Base 4:4.9.3
 _ZN8Nepomuk210Vocabulary3NCO11ContactListEv@Base 4:4.9.3
 _ZN8Nepomuk210Vocabulary3NCO11ModemNumberEv@Base 4:4.9.3
 _ZN8Nepomuk210Vocabulary3NCO11PagerNumberEv@Base 4:4.9.3
 _ZN8Nepomuk210Vocabulary3NCO11PhoneNumberEv@Base 4:4.9.3
 _ZN8Nepomuk210Vocabulary3NCO11contributorEv@Base 4:4.9.3
 _ZN8Nepomuk210Vocabulary3NCO11hasLocationEv@Base 4:4.9.3
 _ZN8Nepomuk210Vocabulary3NCO11phoneNumberEv@Base 4:4.9.3
 _ZN8Nepomuk210Vocabulary3NCO12ContactGroupEv@Base 4:4.9.3
 _ZN8Nepomuk210Vocabulary3NCO12EmailAddressEv@Base 4:4.9.3
 _ZN8Nepomuk210Vocabulary3NCO12IMCapabilityEv@Base 4:4.9.3
 _ZN8Nepomuk210Vocabulary3NCO12IMStatusTypeEv@Base 4:4.9.3
 _ZN8Nepomuk210Vocabulary3NCO12emailAddressEv@Base 4:4.9.3
 _ZN8Nepomuk210Vocabulary3NCO12hasIMAccountEv@Base 4:4.9.3
 _ZN8Nepomuk210Vocabulary3NCO12imStatusTypeEv@Base 4:4.9.3
 _ZN8Nepomuk210Vocabulary3NCO12isAccessedByEv@Base 4:4.9.3
 _ZN8Nepomuk210Vocabulary3NCO12ncoNamespaceEv@Base 4:4.9.3
 _ZN8Nepomuk210Vocabulary3NCO13ContactMediumEv@Base 4:4.9.3
 _ZN8Nepomuk210Vocabulary3NCO13PersonContactEv@Base 4:4.9.3
 _ZN8Nepomuk210Vocabulary3NCO13PostalAddressEv@Base 4:4.9.3
 _ZN8Nepomuk210Vocabulary3NCO13imAccountTypeEv@Base 4:4.9.3
 _ZN8Nepomuk210Vocabulary3NCO13streetAddressEv@Base 4:4.9.3
 _ZN8Nepomuk210Vocabulary3NCO14AudioIMAccountEv@Base 4:4.9.3
 _ZN8Nepomuk210Vocabulary3NCO14CarPhoneNumberEv@Base 4:4.9.3
 _ZN8Nepomuk210Vocabulary3NCO14VideoIMAccountEv@Base 4:4.9.3
 _ZN8Nepomuk210Vocabulary3NCO14belongsToGroupEv@Base 4:4.9.3
 _ZN8Nepomuk210Vocabulary3NCO14hasAffiliationEv@Base 4:4.9.3
 _ZN8Nepomuk210Vocabulary3NCO14hasPhoneNumberEv@Base 4:4.9.3
 _ZN8Nepomuk210Vocabulary3NCO14nameAdditionalEv@Base 4:4.9.3
 _ZN8Nepomuk210Vocabulary3NCO14representativeEv@Base 4:4.9.3
 _ZN8Nepomuk210Vocabulary3NCO15CellPhoneNumberEv@Base 4:4.9.3
 _ZN8Nepomuk210Vocabulary3NCO15MessagingNumberEv@Base 4:4.9.3
 _ZN8Nepomuk210Vocabulary3NCO15addressLocationEv@Base 4:4.9.3
 _ZN8Nepomuk210Vocabulary3NCO15containsContactEv@Base 4:4.9.3
 _ZN8Nepomuk210Vocabulary3NCO15extendedAddressEv@Base 4:4.9.3
 _ZN8Nepomuk210Vocabulary3NCO15hasEmailAddressEv@Base 4:4.9.3
 _ZN8Nepomuk210Vocabulary3NCO15hasIMCapabilityEv@Base 4:4.9.3
 _ZN8Nepomuk210Vocabulary3NCO15imStatusMessageEv@Base 4:4.9.3
 _ZN8Nepomuk210Vocabulary3NCO16IMStatusTypeAwayEv@Base 4:4.9.3
 _ZN8Nepomuk210Vocabulary3NCO16IMStatusTypeBusyEv@Base 4:4.9.3
 _ZN8Nepomuk210Vocabulary3NCO16VoicePhoneNumberEv@Base 4:4.9.3
 _ZN8Nepomuk210Vocabulary3NCO16contactGroupNameEv@Base 4:4.9.3
 _ZN8Nepomuk210Vocabulary3NCO16hasContactMediumEv@Base 4:4.9.3
 _ZN8Nepomuk210Vocabulary3NCO16hasPostalAddressEv@Base 4:4.9.3
 _ZN8Nepomuk210Vocabulary3NCO16imCapabilityTextEv@Base 4:4.9.3
 _ZN8Nepomuk210Vocabulary3NCO16nrlOntologyGraphEv@Base 4:4.9.3
 _ZN8Nepomuk210Vocabulary3NCO17imCapabilityAudioEv@Base 4:4.9.3
 _ZN8Nepomuk210Vocabulary3NCO17imCapabilityVideoEv@Base 4:4.9.3
 _ZN8Nepomuk210Vocabulary3NCO18IMStatusTypeHiddenEv@Base 4:4.9.3
 _ZN8Nepomuk210Vocabulary3NCO19IMStatusTypeOfflineEv@Base 4:4.9.3
 _ZN8Nepomuk210Vocabulary3NCO19IMStatusTypeUnknownEv@Base 4:4.9.3
 _ZN8Nepomuk210Vocabulary3NCO19OrganizationContactEv@Base 4:4.9.3
 _ZN8Nepomuk210Vocabulary3NCO19nameHonorificPrefixEv@Base 4:4.9.3
 _ZN8Nepomuk210Vocabulary3NCO19nameHonorificSuffixEv@Base 4:4.9.3
 _ZN8Nepomuk210Vocabulary3NCO19publishesPresenceToEv@Base 4:4.9.3
 _ZN8Nepomuk210Vocabulary3NCO20VideoTelephoneNumberEv@Base 4:4.9.3
 _ZN8Nepomuk210Vocabulary3NCO20contactMediumCommentEv@Base 4:4.9.3
 _ZN8Nepomuk210Vocabulary3NCO21ContactListDataObjectEv@Base 4:4.9.3
 _ZN8Nepomuk210Vocabulary3NCO21IMStatusTypeAvailableEv@Base 4:4.9.3
 _ZN8Nepomuk210Vocabulary3NCO21ParcelDeliveryAddressEv@Base 4:4.9.3
 _ZN8Nepomuk210Vocabulary3NCO23DomesticDeliveryAddressEv@Base 4:4.9.3
 _ZN8Nepomuk210Vocabulary3NCO24IMStatusTypeExtendedAwayEv@Base 4:4.9.3
 _ZN8Nepomuk210Vocabulary3NCO28InternationalDeliveryAddressEv@Base 4:4.9.3
 _ZN8Nepomuk210Vocabulary3NCO31requestedPresenceSubscriptionToEv@Base 4:4.9.3
 _ZN8Nepomuk210Vocabulary3NCO3endEv@Base 4:4.9.3
 _ZN8Nepomuk210Vocabulary3NCO3keyEv@Base 4:4.9.3
 _ZN8Nepomuk210Vocabulary3NCO3orgEv@Base 4:4.9.3
 _ZN8Nepomuk210Vocabulary3NCO3urlEv@Base 4:4.9.3
 _ZN8Nepomuk210Vocabulary3NCO4RoleEv@Base 4:4.9.3
 _ZN8Nepomuk210Vocabulary3NCO4imIDEv@Base 4:4.9.3
 _ZN8Nepomuk210Vocabulary3NCO4logoEv@Base 4:4.9.3
 _ZN8Nepomuk210Vocabulary3NCO4maleEv@Base 4:4.9.3
 _ZN8Nepomuk210Vocabulary3NCO4noteEv@Base 4:4.9.3
 _ZN8Nepomuk210Vocabulary3NCO4roleEv@Base 4:4.9.3
 _ZN8Nepomuk210Vocabulary3NCO5hobbyEv@Base 4:4.9.3
 _ZN8Nepomuk210Vocabulary3NCO5photoEv@Base 4:4.9.3
 _ZN8Nepomuk210Vocabulary3NCO5poboxEv@Base 4:4.9.3
 _ZN8Nepomuk210Vocabulary3NCO5soundEv@Base 4:4.9.3
 _ZN8Nepomuk210Vocabulary3NCO5startEv@Base 4:4.9.3
 _ZN8Nepomuk210Vocabulary3NCO5titleEv@Base 4:4.9.3
 _ZN8Nepomuk210Vocabulary3NCO6GenderEv@Base 4:4.9.3
 _ZN8Nepomuk210Vocabulary3NCO6femaleEv@Base 4:4.9.3
 _ZN8Nepomuk210Vocabulary3NCO6genderEv@Base 4:4.9.3
 _ZN8Nepomuk210Vocabulary3NCO6regionEv@Base 4:4.9.3
 _ZN8Nepomuk210Vocabulary3NCO7ContactEv@Base 4:4.9.3
 _ZN8Nepomuk210Vocabulary3NCO7blogUrlEv@Base 4:4.9.3
 _ZN8Nepomuk210Vocabulary3NCO7countryEv@Base 4:4.9.3
 _ZN8Nepomuk210Vocabulary3NCO7creatorEv@Base 4:4.9.3
 _ZN8Nepomuk210Vocabulary3NCO7foafUrlEv@Base 4:4.9.3
 _ZN8Nepomuk210Vocabulary3NCO8fullnameEv@Base 4:4.9.3
 _ZN8Nepomuk210Vocabulary3NCO8imStatusEv@Base 4:4.9.3
 _ZN8Nepomuk210Vocabulary3NCO8localityEv@Base 4:4.9.3
 _ZN8Nepomuk210Vocabulary3NCO8nicknameEv@Base 4:4.9.3
 _ZN8Nepomuk210Vocabulary3NCO9BbsNumberEv@Base 4:4.9.3
 _ZN8Nepomuk210Vocabulary3NCO9FaxNumberEv@Base 4:4.9.3
 _ZN8Nepomuk210Vocabulary3NCO9IMAccountEv@Base 4:4.9.3
 _ZN8Nepomuk210Vocabulary3NCO9PcsNumberEv@Base 4:4.9.3
 _ZN8Nepomuk210Vocabulary3NCO9birthDateEv@Base 4:4.9.3
 _ZN8Nepomuk210Vocabulary3NCO9isBlockedEv@Base 4:4.9.3
 _ZN8Nepomuk210Vocabulary3NCO9nameGivenEv@Base 4:4.9.3
 _ZN8Nepomuk210Vocabulary3NCO9publisherEv@Base 4:4.9.3
 _ZN8Nepomuk210Vocabulary3NCO9voiceMailEv@Base 4:4.9.3
 _ZN8Nepomuk210Vocabulary3NDO10copiedFromEv@Base 4:4.9.3
 _ZN8Nepomuk210Vocabulary3NDO12ndoNamespaceEv@Base 4:4.9.3
 _ZN8Nepomuk210Vocabulary3NDO13DownloadEventEv@Base 4:4.9.3
 _ZN8Nepomuk210Vocabulary3NDO13TorrentedFileEv@Base 4:4.9.3
 _ZN8Nepomuk210Vocabulary3NDO7P2PFileEv@Base 4:4.9.3
 _ZN8Nepomuk210Vocabulary3NDO7TorrentEv@Base 4:4.9.3
 _ZN8Nepomuk210Vocabulary3NDO8metadataEv@Base 4:4.9.3
 _ZN8Nepomuk210Vocabulary3NDO8referrerEv@Base 4:4.9.3
 _ZN8Nepomuk210Vocabulary3NFO10AttachmentEv@Base 4:4.9.3
 _ZN8Nepomuk210Vocabulary3NFO10ExecutableEv@Base 4:4.9.3
 _ZN8Nepomuk210Vocabulary3NFO10FilesystemEv@Base 4:4.9.3
 _ZN8Nepomuk210Vocabulary3NFO10SourceCodeEv@Base 4:4.9.3
 _ZN8Nepomuk210Vocabulary3NFO10colorCountEv@Base 4:4.9.3
 _ZN8Nepomuk210Vocabulary3NFO10colorDepthEv@Base 4:4.9.3
 _ZN8Nepomuk210Vocabulary3NFO10fontFamilyEv@Base 4:4.9.3
 _ZN8Nepomuk210Vocabulary3NFO10frameCountEv@Base 4:4.9.3
 _ZN8Nepomuk210Vocabulary3NFO10pageNumberEv@Base 4:4.9.3
 _ZN8Nepomuk210Vocabulary3NFO10sampleRateEv@Base 4:4.9.3
 _ZN8Nepomuk210Vocabulary3NFO10supercedesEv@Base 4:4.9.3
 _ZN8Nepomuk210Vocabulary3NFO10totalSpaceEv@Base 4:4.9.3
 _ZN8Nepomuk210Vocabulary3NFO11ApplicationEv@Base 4:4.9.3
 _ZN8Nepomuk210Vocabulary3NFO11ArchiveItemEv@Base 4:4.9.3
 _ZN8Nepomuk210Vocabulary3NFO11MediaStreamEv@Base 4:4.9.3
 _ZN8Nepomuk210Vocabulary3NFO11RasterImageEv@Base 4:4.9.3
 _ZN8Nepomuk210Vocabulary3NFO11SpreadsheetEv@Base 4:4.9.3
 _ZN8Nepomuk210Vocabulary3NFO11VectorImageEv@Base 4:4.9.3
 _ZN8Nepomuk210Vocabulary3NFO11aspectRatioEv@Base 4:4.9.3
 _ZN8Nepomuk210Vocabulary3NFO11bitrateTypeEv@Base 4:4.9.3
 _ZN8Nepomuk210Vocabulary3NFO11fileCreatedEv@Base 4:4.9.3
 _ZN8Nepomuk210Vocabulary3NFO11lfeChannelsEv@Base 4:4.9.3
 _ZN8Nepomuk210Vocabulary3NFO11paletteSizeEv@Base 4:4.9.3
 _ZN8Nepomuk210Vocabulary3NFO11permissionsEv@Base 4:4.9.3
 _ZN8Nepomuk210Vocabulary3NFO11sampleCountEv@Base 4:4.9.3
 _ZN8Nepomuk210Vocabulary3NFO12HtmlDocumentEv@Base 4:4.9.3
 _ZN8Nepomuk210Vocabulary3NFO12PresentationEv@Base 4:4.9.3
 _ZN8Nepomuk210Vocabulary3NFO12SoftwareItemEv@Base 4:4.9.3
 _ZN8Nepomuk210Vocabulary3NFO12TextDocumentEv@Base 4:4.9.3
 _ZN8Nepomuk210Vocabulary3NFO12definesClassEv@Base 4:4.9.3
 _ZN8Nepomuk210Vocabulary3NFO12deletionDateEv@Base 4:4.9.3
 _ZN8Nepomuk210Vocabulary3NFO12nfoNamespaceEv@Base 4:4.9.3
 _ZN8Nepomuk210Vocabulary3NFO12rearChannelsEv@Base 4:4.9.3
 _ZN8Nepomuk210Vocabulary3NFO12sideChannelsEv@Base 4:4.9.3
 _ZN8Nepomuk210Vocabulary3NFO13DataContainerEv@Base 4:4.9.3
 _ZN8Nepomuk210Vocabulary3NFO13WebDataObjectEv@Base 4:4.9.3
 _ZN8Nepomuk210Vocabulary3NFO13bitsPerSampleEv@Base 4:4.9.3
 _ZN8Nepomuk210Vocabulary3NFO13frontChannelsEv@Base 4:4.9.3
 _ZN8Nepomuk210Vocabulary3NFO13hashAlgorithmEv@Base 4:4.9.3
 _ZN8Nepomuk210Vocabulary3NFO13interlaceModeEv@Base 4:4.9.3
 _ZN8Nepomuk210Vocabulary3NFO13occupiedSpaceEv@Base 4:4.9.3
 _ZN8Nepomuk210Vocabulary3NFO14BookmarkFolderEv@Base 4:4.9.3
 _ZN8Nepomuk210Vocabulary3NFO14FileDataObjectEv@Base 4:4.9.3
 _ZN8Nepomuk210Vocabulary3NFO14averageBitrateEv@Base 4:4.9.3
 _ZN8Nepomuk210Vocabulary3NFO14characterCountEv@Base 4:4.9.3
 _ZN8Nepomuk210Vocabulary3NFO14filesystemTypeEv@Base 4:4.9.3
 _ZN8Nepomuk210Vocabulary3NFO14hasMediaStreamEv@Base 4:4.9.3
 _ZN8Nepomuk210Vocabulary3NFO14streamPositionEv@Base 4:4.9.3
 _ZN8Nepomuk210Vocabulary3NFO15CompressionTypeEv@Base 4:4.9.3
 _ZN8Nepomuk210Vocabulary3NFO15DeletedResourceEv@Base 4:4.9.3
 _ZN8Nepomuk210Vocabulary3NFO15FilesystemImageEv@Base 4:4.9.3
 _ZN8Nepomuk210Vocabulary3NFO15OperatingSystemEv@Base 4:4.9.3
 _ZN8Nepomuk210Vocabulary3NFO15SoftwareServiceEv@Base 4:4.9.3
 _ZN8Nepomuk210Vocabulary3NFO15compressionTypeEv@Base 4:4.9.3
 _ZN8Nepomuk210Vocabulary3NFO15decryptedStatusEv@Base 4:4.9.3
 _ZN8Nepomuk210Vocabulary3NFO15definesFunctionEv@Base 4:4.9.3
 _ZN8Nepomuk210Vocabulary3NFO15encryptedStatusEv@Base 4:4.9.3
 _ZN8Nepomuk210Vocabulary3NFO16EncryptionStatusEv@Base 4:4.9.3
 _ZN8Nepomuk210Vocabulary3NFO16RemoteDataObjectEv@Base 4:4.9.3
 _ZN8Nepomuk210Vocabulary3NFO16containsBookmarkEv@Base 4:4.9.3
 _ZN8Nepomuk210Vocabulary3NFO16encryptionStatusEv@Base 4:4.9.3
 _ZN8Nepomuk210Vocabulary3NFO16fileLastAccessedEv@Base 4:4.9.3
 _ZN8Nepomuk210Vocabulary3NFO16fileLastModifiedEv@Base 4:4.9.3
 _ZN8Nepomuk210Vocabulary3NFO16nrlOntologyGraphEv@Base 4:4.9.3
 _ZN8Nepomuk210Vocabulary3NFO16originalLocationEv@Base 4:4.9.3
 _ZN8Nepomuk210Vocabulary3NFO16uncompressedSizeEv@Base 4:4.9.3
 _ZN8Nepomuk210Vocabulary3NFO17HardDiskPartitionEv@Base 4:4.9.3
 _ZN8Nepomuk210Vocabulary3NFO17PlainTextDocumentEv@Base 4:4.9.3
 _ZN8Nepomuk210Vocabulary3NFO17RemotePortAddressEv@Base 4:4.9.3
 _ZN8Nepomuk210Vocabulary3NFO17characterPositionEv@Base 4:4.9.3
 _ZN8Nepomuk210Vocabulary3NFO18MediaFileListEntryEv@Base 4:4.9.3
 _ZN8Nepomuk210Vocabulary3NFO18belongsToContainerEv@Base 4:4.9.3
 _ZN8Nepomuk210Vocabulary3NFO18verticalResolutionEv@Base 4:4.9.3
 _ZN8Nepomuk210Vocabulary3NFO19LocalFileDataObjectEv@Base 4:4.9.3
 _ZN8Nepomuk210Vocabulary3NFO19isPasswordProtectedEv@Base 4:4.9.3
 _ZN8Nepomuk210Vocabulary3NFO19programmingLanguageEv@Base 4:4.9.3
 _ZN8Nepomuk210Vocabulary3NFO20horizontalResolutionEv@Base 4:4.9.3
 _ZN8Nepomuk210Vocabulary3NFO20lossyCompressionTypeEv@Base 4:4.9.3
 _ZN8Nepomuk210Vocabulary3NFO21PaginatedTextDocumentEv@Base 4:4.9.3
 _ZN8Nepomuk210Vocabulary3NFO21commentCharacterCountEv@Base 4:4.9.3
 _ZN8Nepomuk210Vocabulary3NFO21definesGlobalVariableEv@Base 4:4.9.3
 _ZN8Nepomuk210Vocabulary3NFO21hasMediaFileListEntryEv@Base 4:4.9.3
 _ZN8Nepomuk210Vocabulary3NFO22EmbeddedFileDataObjectEv@Base 4:4.9.3
 _ZN8Nepomuk210Vocabulary3NFO22containsBookmarkFolderEv@Base 4:4.9.3
 _ZN8Nepomuk210Vocabulary3NFO23losslessCompressionTypeEv@Base 4:4.9.3
 _ZN8Nepomuk210Vocabulary3NFO4FontEv@Base 4:4.9.3
 _ZN8Nepomuk210Vocabulary3NFO4IconEv@Base 4:4.9.3
 _ZN8Nepomuk210Vocabulary3NFO4rateEv@Base 4:4.9.3
 _ZN8Nepomuk210Vocabulary3NFO4uuidEv@Base 4:4.9.3
 _ZN8Nepomuk210Vocabulary3NFO5AudioEv@Base 4:4.9.3
 _ZN8Nepomuk210Vocabulary3NFO5ImageEv@Base 4:4.9.3
 _ZN8Nepomuk210Vocabulary3NFO5MediaEv@Base 4:4.9.3
 _ZN8Nepomuk210Vocabulary3NFO5TrashEv@Base 4:4.9.3
 _ZN8Nepomuk210Vocabulary3NFO5VideoEv@Base 4:4.9.3
 _ZN8Nepomuk210Vocabulary3NFO5codecEv@Base 4:4.9.3
 _ZN8Nepomuk210Vocabulary3NFO5countEv@Base 4:4.9.3
 _ZN8Nepomuk210Vocabulary3NFO5widthEv@Base 4:4.9.3
 _ZN8Nepomuk210Vocabulary3NFO6CursorEv@Base 4:4.9.3
 _ZN8Nepomuk210Vocabulary3NFO6FolderEv@Base 4:4.9.3
 _ZN8Nepomuk210Vocabulary3NFO6VisualEv@Base 4:4.9.3
 _ZN8Nepomuk210Vocabulary3NFO6heightEv@Base 4:4.9.3
 _ZN8Nepomuk210Vocabulary3NFO7ArchiveEv@Base 4:4.9.3
 _ZN8Nepomuk210Vocabulary3NFO7MindMapEv@Base 4:4.9.3
 _ZN8Nepomuk210Vocabulary3NFO7WebsiteEv@Base 4:4.9.3
 _ZN8Nepomuk210Vocabulary3NFO7depictsEv@Base 4:4.9.3
 _ZN8Nepomuk210Vocabulary3NFO7fileUrlEv@Base 4:4.9.3
 _ZN8Nepomuk210Vocabulary3NFO7foundryEv@Base 4:4.9.3
 _ZN8Nepomuk210Vocabulary3NFO7hasHashEv@Base 4:4.9.3
 _ZN8Nepomuk210Vocabulary3NFO8BookmarkEv@Base 4:4.9.3
 _ZN8Nepomuk210Vocabulary3NFO8DocumentEv@Base 4:4.9.3
 _ZN8Nepomuk210Vocabulary3NFO8FileHashEv@Base 4:4.9.3
 _ZN8Nepomuk210Vocabulary3NFO8SoftwareEv@Base 4:4.9.3
 _ZN8Nepomuk210Vocabulary3NFO8bitDepthEv@Base 4:4.9.3
 _ZN8Nepomuk210Vocabulary3NFO8channelsEv@Base 4:4.9.3
 _ZN8Nepomuk210Vocabulary3NFO8durationEv@Base 4:4.9.3
 _ZN8Nepomuk210Vocabulary3NFO8encodingEv@Base 4:4.9.3
 _ZN8Nepomuk210Vocabulary3NFO8fileNameEv@Base 4:4.9.3
 _ZN8Nepomuk210Vocabulary3NFO8fileSizeEv@Base 4:4.9.3
 _ZN8Nepomuk210Vocabulary3NFO9MediaListEv@Base 4:4.9.3
 _ZN8Nepomuk210Vocabulary3NFO9bookmarksEv@Base 4:4.9.3
 _ZN8Nepomuk210Vocabulary3NFO9conflictsEv@Base 4:4.9.3
 _ZN8Nepomuk210Vocabulary3NFO9depictionEv@Base 4:4.9.3
 _ZN8Nepomuk210Vocabulary3NFO9fileOwnerEv@Base 4:4.9.3
 _ZN8Nepomuk210Vocabulary3NFO9frameRateEv@Base 4:4.9.3
 _ZN8Nepomuk210Vocabulary3NFO9freeSpaceEv@Base 4:4.9.3
 _ZN8Nepomuk210Vocabulary3NFO9hashValueEv@Base 4:4.9.3
 _ZN8Nepomuk210Vocabulary3NFO9lineCountEv@Base 4:4.9.3
 _ZN8Nepomuk210Vocabulary3NFO9pageCountEv@Base 4:4.9.3
 _ZN8Nepomuk210Vocabulary3NFO9wordCountEv@Base 4:4.9.3
 _ZN8Nepomuk210Vocabulary3NIE10DataObjectEv@Base 4:4.9.3
 _ZN8Nepomuk210Vocabulary3NIE10DataSourceEv@Base 4:4.9.3
 _ZN8Nepomuk210Vocabulary3NIE10dataSourceEv@Base 4:4.9.3
 _ZN8Nepomuk210Vocabulary3NIE10disclaimerEv@Base 4:4.9.3
 _ZN8Nepomuk210Vocabulary3NIE10identifierEv@Base 4:4.9.3
 _ZN8Nepomuk210Vocabulary3NIE10isStoredAsEv@Base 4:4.9.3
 _ZN8Nepomuk210Vocabulary3NIE11contentSizeEv@Base 4:4.9.3
 _ZN8Nepomuk210Vocabulary3NIE11descriptionEv@Base 4:4.9.3
 _ZN8Nepomuk210Vocabulary3NIE11htmlContentEv@Base 4:4.9.3
 _ZN8Nepomuk210Vocabulary3NIE11licenseTypeEv@Base 4:4.9.3
 _ZN8Nepomuk210Vocabulary3NIE12characterSetEv@Base 4:4.9.3
 _ZN8Nepomuk210Vocabulary3NIE12lastModifiedEv@Base 4:4.9.3
 _ZN8Nepomuk210Vocabulary3NIE12nieNamespaceEv@Base 4:4.9.3
 _ZN8Nepomuk210Vocabulary3NIE13interpretedAsEv@Base 4:4.9.3
 _ZN8Nepomuk210Vocabulary3NIE13lastRefreshedEv@Base 4:4.9.3
 _ZN8Nepomuk210Vocabulary3NIE13rootElementOfEv@Base 4:4.9.3
 _ZN8Nepomuk210Vocabulary3NIE14contentCreatedEv@Base 4:4.9.3
 _ZN8Nepomuk210Vocabulary3NIE14hasLogicalPartEv@Base 4:4.9.3
 _ZN8Nepomuk210Vocabulary3NIE15contentModifiedEv@Base 4:4.9.3
 _ZN8Nepomuk210Vocabulary3NIE15generatorOptionEv@Base 4:4.9.3
 _ZN8Nepomuk210Vocabulary3NIE15isLogicalPartOfEv@Base 4:4.9.3
 _ZN8Nepomuk210Vocabulary3NIE16nrlOntologyGraphEv@Base 4:4.9.3
 _ZN8Nepomuk210Vocabulary3NIE16plainTextContentEv@Base 4:4.9.3
 _ZN8Nepomuk210Vocabulary3NIE18InformationElementEv@Base 4:4.9.3
 _ZN8Nepomuk210Vocabulary3NIE19contentLastModifiedEv@Base 4:4.9.3
 _ZN8Nepomuk210Vocabulary3NIE22informationElementDateEv@Base 4:4.9.3
 _ZN8Nepomuk210Vocabulary3NIE3urlEv@Base 4:4.9.3
 _ZN8Nepomuk210Vocabulary3NIE5legalEv@Base 4:4.9.3
 _ZN8Nepomuk210Vocabulary3NIE5linksEv@Base 4:4.9.3
 _ZN8Nepomuk210Vocabulary3NIE5titleEv@Base 4:4.9.3
 _ZN8Nepomuk210Vocabulary3NIE7commentEv@Base 4:4.9.3
 _ZN8Nepomuk210Vocabulary3NIE7createdEv@Base 4:4.9.3
 _ZN8Nepomuk210Vocabulary3NIE7dependsEv@Base 4:4.9.3
 _ZN8Nepomuk210Vocabulary3NIE7hasPartEv@Base 4:4.9.3
 _ZN8Nepomuk210Vocabulary3NIE7keywordEv@Base 4:4.9.3
 _ZN8Nepomuk210Vocabulary3NIE7licenseEv@Base 4:4.9.3
 _ZN8Nepomuk210Vocabulary3NIE7subjectEv@Base 4:4.9.3
 _ZN8Nepomuk210Vocabulary3NIE7versionEv@Base 4:4.9.3
 _ZN8Nepomuk210Vocabulary3NIE8byteSizeEv@Base 4:4.9.3
 _ZN8Nepomuk210Vocabulary3NIE8isPartOfEv@Base 4:4.9.3
 _ZN8Nepomuk210Vocabulary3NIE8languageEv@Base 4:4.9.3
 _ZN8Nepomuk210Vocabulary3NIE8mimeTypeEv@Base 4:4.9.3
 _ZN8Nepomuk210Vocabulary3NIE8modifiedEv@Base 4:4.9.3
 _ZN8Nepomuk210Vocabulary3NIE9copyrightEv@Base 4:4.9.3
 _ZN8Nepomuk210Vocabulary3NIE9coreGraphEv@Base 4:4.9.3
 _ZN8Nepomuk210Vocabulary3NIE9generatorEv@Base 4:4.9.3
 _ZN8Nepomuk210Vocabulary3NIE9relatedToEv@Base 4:4.9.3
 _ZN8Nepomuk210Vocabulary3NMM10MusicAlbumEv@Base 4:4.9.3
 _ZN8Nepomuk210Vocabulary3NMM10MusicPieceEv@Base 4:4.9.3
 _ZN8Nepomuk210Vocabulary3NMM10hasEpisodeEv@Base 4:4.9.3
 _ZN8Nepomuk210Vocabulary3NMM10musicAlbumEv@Base 4:4.9.3
 _ZN8Nepomuk210Vocabulary3NMM11releaseDateEv@Base 4:4.9.3
 _ZN8Nepomuk210Vocabulary3NMM11trackNumberEv@Base 4:4.9.3
 _ZN8Nepomuk210Vocabulary3NMM12nmmNamespaceEv@Base 4:4.9.3
 _ZN8Nepomuk210Vocabulary3NMM12seasonNumberEv@Base 4:4.9.3
 _ZN8Nepomuk210Vocabulary3NMM13albumPeakGainEv@Base 4:4.9.3
 _ZN8Nepomuk210Vocabulary3NMM13episodeNumberEv@Base 4:4.9.3
 _ZN8Nepomuk210Vocabulary3NMM13trackPeakGainEv@Base 4:4.9.3
 _ZN8Nepomuk210Vocabulary3NMM14audienceRatingEv@Base 4:4.9.3
 _ZN8Nepomuk210Vocabulary3NMM14beatsPerMinuteEv@Base 4:4.9.3
 _ZN8Nepomuk210Vocabulary3NMM14isPartOfSeasonEv@Base 4:4.9.3
 _ZN8Nepomuk210Vocabulary3NMM15albumTrackCountEv@Base 4:4.9.3
 _ZN8Nepomuk210Vocabulary3NMM15cinematographerEv@Base 4:4.9.3
 _ZN8Nepomuk210Vocabulary3NMM16hasSeasonEpisodeEv@Base 4:4.9.3
 _ZN8Nepomuk210Vocabulary3NMM16nrlOntologyGraphEv@Base 4:4.9.3
 _ZN8Nepomuk210Vocabulary3NMM17assistantDirectorEv@Base 4:4.9.3
 _ZN8Nepomuk210Vocabulary3NMM17musicCDIdentifierEv@Base 4:4.9.3
 _ZN8Nepomuk210Vocabulary3NMM18musicBrainzAlbumIDEv@Base 4:4.9.3
 _ZN8Nepomuk210Vocabulary3NMM18musicBrainzTrackIDEv@Base 4:4.9.3
 _ZN8Nepomuk210Vocabulary3NMM34internationalStandardRecordingCodeEv@Base 4:4.9.3
 _ZN8Nepomuk210Vocabulary3NMM5MovieEv@Base 4:4.9.3
 _ZN8Nepomuk210Vocabulary3NMM5actorEv@Base 4:4.9.3
 _ZN8Nepomuk210Vocabulary3NMM5genreEv@Base 4:4.9.3
 _ZN8Nepomuk210Vocabulary3NMM6TVShowEv@Base 4:4.9.3
 _ZN8Nepomuk210Vocabulary3NMM6seasonEv@Base 4:4.9.3
 _ZN8Nepomuk210Vocabulary3NMM6seriesEv@Base 4:4.9.3
 _ZN8Nepomuk210Vocabulary3NMM6writerEv@Base 4:4.9.3
 _ZN8Nepomuk210Vocabulary3NMM7artworkEv@Base 4:4.9.3
 _ZN8Nepomuk210Vocabulary3NMM7setSizeEv@Base 4:4.9.3
 _ZN8Nepomuk210Vocabulary3NMM8TVSeasonEv@Base 4:4.9.3
 _ZN8Nepomuk210Vocabulary3NMM8TVSeriesEv@Base 4:4.9.3
 _ZN8Nepomuk210Vocabulary3NMM8composerEv@Base 4:4.9.3
 _ZN8Nepomuk210Vocabulary3NMM8directorEv@Base 4:4.9.3
 _ZN8Nepomuk210Vocabulary3NMM8lyricistEv@Base 4:4.9.3
 _ZN8Nepomuk210Vocabulary3NMM8metadataEv@Base 4:4.9.3
 _ZN8Nepomuk210Vocabulary3NMM8producerEv@Base 4:4.9.3
 _ZN8Nepomuk210Vocabulary3NMM8seasonOfEv@Base 4:4.9.3
 _ZN8Nepomuk210Vocabulary3NMM8synopsisEv@Base 4:4.9.3
 _ZN8Nepomuk210Vocabulary3NMM9albumGainEv@Base 4:4.9.3
 _ZN8Nepomuk210Vocabulary3NMM9hasSeasonEv@Base 4:4.9.3
 _ZN8Nepomuk210Vocabulary3NMM9performerEv@Base 4:4.9.3
 _ZN8Nepomuk210Vocabulary3NMM9setNumberEv@Base 4:4.9.3
 _ZN8Nepomuk210Vocabulary3NMM9trackGainEv@Base 4:4.9.3
 _ZN8Nepomuk210Vocabulary3NMO10MimeEntityEv@Base 4:4.9.3
 _ZN8Nepomuk210Vocabulary3NMO10headerNameEv@Base 4:4.9.3
 _ZN8Nepomuk210Vocabulary3NMO10referencesEv@Base 4:4.9.3
 _ZN8Nepomuk210Vocabulary3NMO11headerValueEv@Base 4:4.9.3
 _ZN8Nepomuk210Vocabulary3NMO11messageFromEv@Base 4:4.9.3
 _ZN8Nepomuk210Vocabulary3NMO12nmoNamespaceEv@Base 4:4.9.3
 _ZN8Nepomuk210Vocabulary3NMO12receivedDateEv@Base 4:4.9.3
 _ZN8Nepomuk210Vocabulary3NMO13MessageHeaderEv@Base 4:4.9.3
 _ZN8Nepomuk210Vocabulary3NMO13hasAttachmentEv@Base 4:4.9.3
 _ZN8Nepomuk210Vocabulary3NMO13messageHeaderEv@Base 4:4.9.3
 _ZN8Nepomuk210Vocabulary3NMO13messageSenderEv@Base 4:4.9.3
 _ZN8Nepomuk210Vocabulary3NMO14messageReplyToEv@Base 4:4.9.3
 _ZN8Nepomuk210Vocabulary3NMO14messageSubjectEv@Base 4:4.9.3
 _ZN8Nepomuk210Vocabulary3NMO15contentMimeTypeEv@Base 4:4.9.3
 _ZN8Nepomuk210Vocabulary3NMO16messageRecipientEv@Base 4:4.9.3
 _ZN8Nepomuk210Vocabulary3NMO16nrlOntologyGraphEv@Base 4:4.9.3
 _ZN8Nepomuk210Vocabulary3NMO16primaryRecipientEv@Base 4:4.9.3
 _ZN8Nepomuk210Vocabulary3NMO17MailboxDataObjectEv@Base 4:4.9.3
 _ZN8Nepomuk210Vocabulary3NMO18htmlMessageContentEv@Base 4:4.9.3
 _ZN8Nepomuk210Vocabulary3NMO18secondaryRecipientEv@Base 4:4.9.3
 _ZN8Nepomuk210Vocabulary3NMO23plainTextMessageContentEv@Base 4:4.9.3
 _ZN8Nepomuk210Vocabulary3NMO23primaryMessageRecipientEv@Base 4:4.9.3
 _ZN8Nepomuk210Vocabulary3NMO25secondaryMessageRecipientEv@Base 4:4.9.3
 _ZN8Nepomuk210Vocabulary3NMO2ccEv@Base 4:4.9.3
 _ZN8Nepomuk210Vocabulary3NMO2toEv@Base 4:4.9.3
 _ZN8Nepomuk210Vocabulary3NMO3bccEv@Base 4:4.9.3
 _ZN8Nepomuk210Vocabulary3NMO4fromEv@Base 4:4.9.3
 _ZN8Nepomuk210Vocabulary3NMO5EmailEv@Base 4:4.9.3
 _ZN8Nepomuk210Vocabulary3NMO6isReadEv@Base 4:4.9.3
 _ZN8Nepomuk210Vocabulary3NMO6senderEv@Base 4:4.9.3
 _ZN8Nepomuk210Vocabulary3NMO7MailboxEv@Base 4:4.9.3
 _ZN8Nepomuk210Vocabulary3NMO7MessageEv@Base 4:4.9.3
 _ZN8Nepomuk210Vocabulary3NMO7emailCcEv@Base 4:4.9.3
 _ZN8Nepomuk210Vocabulary3NMO7emailToEv@Base 4:4.9.3
 _ZN8Nepomuk210Vocabulary3NMO7replyToEv@Base 4:4.9.3
 _ZN8Nepomuk210Vocabulary3NMO8emailBccEv@Base 4:4.9.3
 _ZN8Nepomuk210Vocabulary3NMO8sentDateEv@Base 4:4.9.3
 _ZN8Nepomuk210Vocabulary3NMO9IMMessageEv@Base 4:4.9.3
 _ZN8Nepomuk210Vocabulary3NMO9inReplyToEv@Base 4:4.9.3
 _ZN8Nepomuk210Vocabulary3NMO9messageIdEv@Base 4:4.9.3
 _ZN8Nepomuk210Vocabulary3NMO9recipientEv@Base 4:4.9.3
 _ZN8Nepomuk210Vocabulary3TMO10AttachmentEv@Base 4:4.9.3
 _ZN8Nepomuk210Vocabulary3TMO10ImportanceEv@Base 4:4.9.3
 _ZN8Nepomuk210Vocabulary3TMO10actualTimeEv@Base 4:4.9.3
 _ZN8Nepomuk210Vocabulary3TMO10attachmentEv@Base 4:4.9.3
 _ZN8Nepomuk210Vocabulary3TMO10dependencyEv@Base 4:4.9.3
 _ZN8Nepomuk210Vocabulary3TMO10importanceEv@Base 4:4.9.3
 _ZN8Nepomuk210Vocabulary3TMO10targetTimeEv@Base 4:4.9.3
 _ZN8Nepomuk210Vocabulary3TMO10taskSourceEv@Base 4:4.9.3
 _ZN8Nepomuk210Vocabulary3TMO11contextTaskEv@Base 4:4.9.3
 _ZN8Nepomuk210Vocabulary3TMO12DelegabilityEv@Base 4:4.9.3
 _ZN8Nepomuk210Vocabulary3TMO12containsTaskEv@Base 4:4.9.3
 _ZN8Nepomuk210Vocabulary3TMO12delegabilityEv@Base 4:4.9.3
 _ZN8Nepomuk210Vocabulary3TMO12sendDateTimeEv@Base 4:4.9.3
 _ZN8Nepomuk210Vocabulary3TMO12tmoNamespaceEv@Base 4:4.9.3
 _ZN8Nepomuk210Vocabulary3TMO13StateTypeRoleEv@Base 4:4.9.3
 _ZN8Nepomuk210Vocabulary3TMO13TaskContainerEv@Base 4:4.9.3
 _ZN8Nepomuk210Vocabulary3TMO13actualEndTimeEv@Base 4:4.9.3
 _ZN8Nepomuk210Vocabulary3TMO13contextThreadEv@Base 4:4.9.3
 _ZN8Nepomuk210Vocabulary3TMO13indexPositionEv@Base 4:4.9.3
 _ZN8Nepomuk210Vocabulary3TMO13stateTypeRoleEv@Base 4:4.9.3
 _ZN8Nepomuk210Vocabulary3TMO13targetEndTimeEv@Base 4:4.9.3
 _ZN8Nepomuk210Vocabulary3TMO13taskReferenceEv@Base 4:4.9.3
 _ZN8Nepomuk210Vocabulary3TMO14AbilityCarrierEv@Base 4:4.9.3
 _ZN8Nepomuk210Vocabulary3TMO14AttachmentRoleEv@Base 4:4.9.3
 _ZN8Nepomuk210Vocabulary3TMO14TaskDependencyEv@Base 4:4.9.3
 _ZN8Nepomuk210Vocabulary3TMO14abilityCarrierEv@Base 4:4.9.3
 _ZN8Nepomuk210Vocabulary3TMO14attachmentRoleEv@Base 4:4.9.3
 _ZN8Nepomuk210Vocabulary3TMO14attachmentTaskEv@Base 4:4.9.3
 _ZN8Nepomuk210Vocabulary3TMO14dependencyTypeEv@Base 4:4.9.3
 _ZN8Nepomuk210Vocabulary3TMO14involvedPersonEv@Base 4:4.9.3
 _ZN8Nepomuk210Vocabulary3TMO14lastReviewDateEv@Base 4:4.9.3
 _ZN8Nepomuk210Vocabulary3TMO14timemanagementEv@Base 4:4.9.3
 _ZN8Nepomuk210Vocabulary3TMO14transmissionToEv@Base 4:4.9.3
 _ZN8Nepomuk210Vocabulary3TMO15InterdependenceEv@Base 4:4.9.3
 _ZN8Nepomuk210Vocabulary3TMO15actualStartTimeEv@Base 4:4.9.3
 _ZN8Nepomuk210Vocabulary3TMO15involvedPersonsEv@Base 4:4.9.3
 _ZN8Nepomuk210Vocabulary3TMO15receiveDateTimeEv@Base 4:4.9.3
 _ZN8Nepomuk210Vocabulary3TMO15subTaskOrderingEv@Base 4:4.9.3
 _ZN8Nepomuk210Vocabulary3TMO15targetStartTimeEv@Base 4:4.9.3
 _ZN8Nepomuk210Vocabulary3TMO15taskDescriptionEv@Base 4:4.9.3
 _ZN8Nepomuk210Vocabulary3TMO16TaskPrivacyStateEv@Base 4:4.9.3
 _ZN8Nepomuk210Vocabulary3TMO16TaskTransmissionEv@Base 4:4.9.3
 _ZN8Nepomuk210Vocabulary3TMO16TransmissionTypeEv@Base 4:4.9.3
 _ZN8Nepomuk210Vocabulary3TMO16actualCompletionEv@Base 4:4.9.3
 _ZN8Nepomuk210Vocabulary3TMO16nrlOntologyGraphEv@Base 4:4.9.3
 _ZN8Nepomuk210Vocabulary3TMO16targetCompletionEv@Base 4:4.9.3
 _ZN8Nepomuk210Vocabulary3TMO16taskPrivacyStateEv@Base 4:4.9.3
 _ZN8Nepomuk210Vocabulary3TMO16taskTransmissionEv@Base 4:4.9.3
 _ZN8Nepomuk210Vocabulary3TMO16transmissionFromEv@Base 4:4.9.3
 _ZN8Nepomuk210Vocabulary3TMO16transmissionTaskEv@Base 4:4.9.3
 _ZN8Nepomuk210Vocabulary3TMO16transmissionTypeEv@Base 4:4.9.3
 _ZN8Nepomuk210Vocabulary3TMO17PersonInvolvementEv@Base 4:4.9.3
 _ZN8Nepomuk210Vocabulary3TMO17TransmissionStateEv@Base 4:4.9.3
 _ZN8Nepomuk210Vocabulary3TMO17dependencyMemberAEv@Base 4:4.9.3
 _ZN8Nepomuk210Vocabulary3TMO17dependencyMemberBEv@Base 4:4.9.3
 _ZN8Nepomuk210Vocabulary3TMO17transmissionStateEv@Base 4:4.9.3
 _ZN8Nepomuk210Vocabulary3TMO18AbilityCarrierRoleEv@Base 4:4.9.3
 _ZN8Nepomuk210Vocabulary3TMO18abilityCarrierRoleEv@Base 4:4.9.3
 _ZN8Nepomuk210Vocabulary3TMO18abilityCarrierTaskEv@Base 4:4.9.3
 _ZN8Nepomuk210Vocabulary3TMO18involvedPersonRoleEv@Base 4:4.9.3
 _ZN8Nepomuk210Vocabulary3TMO18involvedPersonTaskEv@Base 4:4.9.3
 _ZN8Nepomuk210Vocabulary3TMO18taskStateChangesToEv@Base 4:4.9.3
 _ZN8Nepomuk210Vocabulary3TMO19AgentAbilityCarrierEv@Base 4:4.9.3
 _ZN8Nepomuk210Vocabulary3TMO19SuccessorDependencyEv@Base 4:4.9.3
 _ZN8Nepomuk210Vocabulary3TMO19attachmentReferenceEv@Base 4:4.9.3
 _ZN8Nepomuk210Vocabulary3TMO19nextReviewIntervallEv@Base 4:4.9.3
 _ZN8Nepomuk210Vocabulary3TMO20SimilarityDependenceEv@Base 4:4.9.3
 _ZN8Nepomuk210Vocabulary3TMO20UndirectedDependencyEv@Base 4:4.9.3
 _ZN8Nepomuk210Vocabulary3TMO20taskStateChangesFromEv@Base 4:4.9.3
 _ZN8Nepomuk210Vocabulary3TMO21AssociationDependencyEv@Base 4:4.9.3
 _ZN8Nepomuk210Vocabulary3TMO21PersonInvolvementRoleEv@Base 4:4.9.3
 _ZN8Nepomuk210Vocabulary3TMO21PredecessorDependencyEv@Base 4:4.9.3
 _ZN8Nepomuk210Vocabulary3TMO21dependencyDescriptionEv@Base 4:4.9.3
 _ZN8Nepomuk210Vocabulary3TMO21dependencyOrderNumberEv@Base 4:4.9.3
 _ZN8Nepomuk210Vocabulary3TMO22SuperSubTaskDependencyEv@Base 4:4.9.3
 _ZN8Nepomuk210Vocabulary3TMO23TMO_Instance_Urgency_01Ev@Base 4:4.9.3
 _ZN8Nepomuk210Vocabulary3TMO23TMO_Instance_Urgency_02Ev@Base 4:4.9.3
 _ZN8Nepomuk210Vocabulary3TMO23TMO_Instance_Urgency_03Ev@Base 4:4.9.3
 _ZN8Nepomuk210Vocabulary3TMO23TMO_Instance_Urgency_04Ev@Base 4:4.9.3
 _ZN8Nepomuk210Vocabulary3TMO23TMO_Instance_Urgency_05Ev@Base 4:4.9.3
 _ZN8Nepomuk210Vocabulary3TMO23TMO_Instance_Urgency_06Ev@Base 4:4.9.3
 _ZN8Nepomuk210Vocabulary3TMO23TMO_Instance_Urgency_07Ev@Base 4:4.9.3
 _ZN8Nepomuk210Vocabulary3TMO23TMO_Instance_Urgency_08Ev@Base 4:4.9.3
 _ZN8Nepomuk210Vocabulary3TMO23TMO_Instance_Urgency_09Ev@Base 4:4.9.3
 _ZN8Nepomuk210Vocabulary3TMO23TMO_Instance_Urgency_10Ev@Base 4:4.9.3
 _ZN8Nepomuk210Vocabulary3TMO25AbilityCarrierInvolvementEv@Base 4:4.9.3
 _ZN8Nepomuk210Vocabulary3TMO25TMO_Instance_Priority_LowEv@Base 4:4.9.3
 _ZN8Nepomuk210Vocabulary3TMO25abilityCarrierInvolvementEv@Base 4:4.9.3
 _ZN8Nepomuk210Vocabulary3TMO26TMO_Instance_Importance_01Ev@Base 4:4.9.3
 _ZN8Nepomuk210Vocabulary3TMO26TMO_Instance_Importance_02Ev@Base 4:4.9.3
 _ZN8Nepomuk210Vocabulary3TMO26TMO_Instance_Importance_03Ev@Base 4:4.9.3
 _ZN8Nepomuk210Vocabulary3TMO26TMO_Instance_Importance_04Ev@Base 4:4.9.3
 _ZN8Nepomuk210Vocabulary3TMO26TMO_Instance_Importance_05Ev@Base 4:4.9.3
 _ZN8Nepomuk210Vocabulary3TMO26TMO_Instance_Importance_06Ev@Base 4:4.9.3
 _ZN8Nepomuk210Vocabulary3TMO26TMO_Instance_Importance_07Ev@Base 4:4.9.3
 _ZN8Nepomuk210Vocabulary3TMO26TMO_Instance_Importance_08Ev@Base 4:4.9.3
 _ZN8Nepomuk210Vocabulary3TMO26TMO_Instance_Importance_09Ev@Base 4:4.9.3
 _ZN8Nepomuk210Vocabulary3TMO26TMO_Instance_Importance_10Ev@Base 4:4.9.3
 _ZN8Nepomuk210Vocabulary3TMO26TMO_Instance_Priority_HighEv@Base 4:4.9.3
 _ZN8Nepomuk210Vocabulary3TMO26TMO_Instance_TaskState_NewEv@Base 4:4.9.3
 _ZN8Nepomuk210Vocabulary3TMO26transmissionStateChangesToEv@Base 4:4.9.3
 _ZN8Nepomuk210Vocabulary3TMO28TMO_Instance_Priority_MediumEv@Base 4:4.9.3
 _ZN8Nepomuk210Vocabulary3TMO28transmissionStateChangesFromEv@Base 4:4.9.3
 _ZN8Nepomuk210Vocabulary3TMO29TMO_Instance_Delegability_LowEv@Base 4:4.9.3
 _ZN8Nepomuk210Vocabulary3TMO30PredecessorSuccessorDependencyEv@Base 4:4.9.3
 _ZN8Nepomuk210Vocabulary3TMO30TMO_Instance_Delegability_HighEv@Base 4:4.9.3
 _ZN8Nepomuk210Vocabulary3TMO30TMO_Instance_TaskState_DeletedEv@Base 4:4.9.3
 _ZN8Nepomuk210Vocabulary3TMO30TMO_Instance_TaskState_RunningEv@Base 4:4.9.3
 _ZN8Nepomuk210Vocabulary3TMO31TMO_Instance_Delegability_NeverEv@Base 4:4.9.3
 _ZN8Nepomuk210Vocabulary3TMO31TMO_Instance_TaskState_ArchivedEv@Base 4:4.9.3
 _ZN8Nepomuk210Vocabulary3TMO32TMO_Instance_AttachmentRole_UsedEv@Base 4:4.9.3
 _ZN8Nepomuk210Vocabulary3TMO32TMO_Instance_Delegability_MediumEv@Base 4:4.9.3
 _ZN8Nepomuk210Vocabulary3TMO32TMO_Instance_TaskContainer_inboxEv@Base 4:4.9.3
 _ZN8Nepomuk210Vocabulary3TMO32TMO_Instance_TaskPrivacy_PrivateEv@Base 4:4.9.3
 _ZN8Nepomuk210Vocabulary3TMO32TMO_Instance_TaskState_CompletedEv@Base 4:4.9.3
 _ZN8Nepomuk210Vocabulary3TMO32TMO_Instance_TaskState_FinalizedEv@Base 4:4.9.3
 _ZN8Nepomuk210Vocabulary3TMO32TMO_Instance_TaskState_SuspendedEv@Base 4:4.9.3
 _ZN8Nepomuk210Vocabulary3TMO33TMO_Instance_TaskContainer_outboxEv@Base 4:4.9.3
 _ZN8Nepomuk210Vocabulary3TMO33TMO_Instance_TaskState_TerminatedEv@Base 4:4.9.3
 _ZN8Nepomuk210Vocabulary3TMO34TMO_Instance_TaskContainer_archiveEv@Base 4:4.9.3
 _ZN8Nepomuk210Vocabulary3TMO34TMO_Instance_TransmissionType_JoinEv@Base 4:4.9.3
 _ZN8Nepomuk210Vocabulary3TMO35TMO_Instance_AttachmentRole_RelatedEv@Base 4:4.9.3
 _ZN8Nepomuk210Vocabulary3TMO36TMO_Instance_AbilityCarrierRole_UsedEv@Base 4:4.9.3
 _ZN8Nepomuk210Vocabulary3TMO36TMO_Instance_AttachmentRole_RequiredEv@Base 4:4.9.3
 _ZN8Nepomuk210Vocabulary3TMO37TMO_Instance_TaskContainer_trashtasksEv@Base 4:4.9.3
 _ZN8Nepomuk210Vocabulary3TMO37TMO_Instance_TaskPrivacy_ProfessionalEv@Base 4:4.9.3
 _ZN8Nepomuk210Vocabulary3TMO38TMO_Instance_Delegability_UnrestrictedEv@Base 4:4.9.3
 _ZN8Nepomuk210Vocabulary3TMO38TMO_Instance_TaskContainer_activetasksEv@Base 4:4.9.3
 _ZN8Nepomuk210Vocabulary3TMO38TMO_Instance_TransmissionType_TransferEv@Base 4:4.9.3
 _ZN8Nepomuk210Vocabulary3TMO40TMO_Instance_AbilityCarrierRole_RequiredEv@Base 4:4.9.3
 _ZN8Nepomuk210Vocabulary3TMO40TMO_Instance_PersonInvolvementRole_OwnerEv@Base 4:4.9.3
 _ZN8Nepomuk210Vocabulary3TMO40TMO_Instance_TransmissionType_DelegationEv@Base 4:4.9.3
 _ZN8Nepomuk210Vocabulary3TMO41TMO_Instance_AbilityCarrierRole_RequestedEv@Base 4:4.9.3
 _ZN8Nepomuk210Vocabulary3TMO42TMO_Instance_PersonInvolvementRole_AnalystEv@Base 4:4.9.3
 _ZN8Nepomuk210Vocabulary3TMO42TMO_Instance_PersonInvolvementRole_CreatorEv@Base 4:4.9.3
 _ZN8Nepomuk210Vocabulary3TMO42TMO_Instance_PersonInvolvementRole_RelatedEv@Base 4:4.9.3
 _ZN8Nepomuk210Vocabulary3TMO42TMO_Instance_TransmissionState_TransmittedEv@Base 4:4.9.3
 _ZN8Nepomuk210Vocabulary3TMO43TMO_Instance_PersonInvolvementRole_CoworkerEv@Base 4:4.9.3
 _ZN8Nepomuk210Vocabulary3TMO43TMO_Instance_PersonInvolvementRole_DelegateEv@Base 4:4.9.3
 _ZN8Nepomuk210Vocabulary3TMO43TMO_Instance_PersonInvolvementRole_ExecutorEv@Base 4:4.9.3
 _ZN8Nepomuk210Vocabulary3TMO43TMO_Instance_PersonInvolvementRole_InvolvedEv@Base 4:4.9.3
 _ZN8Nepomuk210Vocabulary3TMO43TMO_Instance_PersonInvolvementRole_ObserverEv@Base 4:4.9.3
 _ZN8Nepomuk210Vocabulary3TMO43TMO_Instance_PersonInvolvementRole_ReceiverEv@Base 4:4.9.3
 _ZN8Nepomuk210Vocabulary3TMO43TMO_Instance_PersonInvolvementRole_ReviewerEv@Base 4:4.9.3
 _ZN8Nepomuk210Vocabulary3TMO44TMO_Instance_PersonInvolvementRole_InitiatorEv@Base 4:4.9.3
 _ZN8Nepomuk210Vocabulary3TMO44TMO_Instance_PersonInvolvementRole_SuggestedEv@Base 4:4.9.3
 _ZN8Nepomuk210Vocabulary3TMO45TMO_Instance_AttachmentRole_Desired_RequestedEv@Base 4:4.9.3
 _ZN8Nepomuk210Vocabulary3TMO45TMO_Instance_PersonInvolvementRole_ControllerEv@Base 4:4.9.3
 _ZN8Nepomuk210Vocabulary3TMO45TMO_Instance_TransmissionState_NotTransmittedEv@Base 4:4.9.3
 _ZN8Nepomuk210Vocabulary3TMO47TMO_Instance_PersonInvolvementRole_CollaboratorEv@Base 4:4.9.3
 _ZN8Nepomuk210Vocabulary3TMO4RoleEv@Base 4:4.9.3
 _ZN8Nepomuk210Vocabulary3TMO4TaskEv@Base 4:4.9.3
 _ZN8Nepomuk210Vocabulary3TMO51TMO_Instance_PersonInvolvementRole_ExternalObserverEv@Base 4:4.9.3
 _ZN8Nepomuk210Vocabulary3TMO51TMO_Instance_PersonInvolvementRole_InternalObserverEv@Base 4:4.9.3
 _ZN8Nepomuk210Vocabulary3TMO51TMO_Instance_TransmissionState_Accepted_TransmittedEv@Base 4:4.9.3
 _ZN8Nepomuk210Vocabulary3TMO51TMO_Instance_TransmissionState_Rejected_TransmittedEv@Base 4:4.9.3
 _ZN8Nepomuk210Vocabulary3TMO54TMO_Instance_TransmissionState_Accepted_NotTransmittedEv@Base 4:4.9.3
 _ZN8Nepomuk210Vocabulary3TMO54TMO_Instance_TransmissionState_Rejected_NotTransmittedEv@Base 4:4.9.3
 _ZN8Nepomuk210Vocabulary3TMO5SkillEv@Base 4:4.9.3
 _ZN8Nepomuk210Vocabulary3TMO6taskIdEv@Base 4:4.9.3
 _ZN8Nepomuk210Vocabulary3TMO7UrgencyEv@Base 4:4.9.3
 _ZN8Nepomuk210Vocabulary3TMO7dueDateEv@Base 4:4.9.3
 _ZN8Nepomuk210Vocabulary3TMO7endTimeEv@Base 4:4.9.3
 _ZN8Nepomuk210Vocabulary3TMO7subTaskEv@Base 4:4.9.3
 _ZN8Nepomuk210Vocabulary3TMO7urgencyEv@Base 4:4.9.3
 _ZN8Nepomuk210Vocabulary3TMO8PriorityEv@Base 4:4.9.3
 _ZN8Nepomuk210Vocabulary3TMO8dateTimeEv@Base 4:4.9.3
 _ZN8Nepomuk210Vocabulary3TMO8logEntryEv@Base 4:4.9.3
 _ZN8Nepomuk210Vocabulary3TMO8priorityEv@Base 4:4.9.3
 _ZN8Nepomuk210Vocabulary3TMO8progressEv@Base 4:4.9.3
 _ZN8Nepomuk210Vocabulary3TMO8taskGoalEv@Base 4:4.9.3
 _ZN8Nepomuk210Vocabulary3TMO8taskNameEv@Base 4:4.9.3
 _ZN8Nepomuk210Vocabulary3TMO9TaskStateEv@Base 4:4.9.3
 _ZN8Nepomuk210Vocabulary3TMO9createdByEv@Base 4:4.9.3
 _ZN8Nepomuk210Vocabulary3TMO9startTimeEv@Base 4:4.9.3
 _ZN8Nepomuk210Vocabulary3TMO9superTaskEv@Base 4:4.9.3
 _ZN8Nepomuk210Vocabulary3TMO9taskStateEv@Base 4:4.9.3
 _ZN8Nepomuk210Vocabulary4NCAL10AttachmentEv@Base 4:4.9.3
 _ZN8Nepomuk210Vocabulary4NCAL10NcalPeriodEv@Base 4:4.9.3
 _ZN8Nepomuk210Vocabulary4NCAL10TodoStatusEv@Base 4:4.9.3
 _ZN8Nepomuk210Vocabulary4NCAL10bymonthdayEv@Base 4:4.9.3
 _ZN8Nepomuk210Vocabulary4NCAL10categoriesEv@Base 4:4.9.3
 _ZN8Nepomuk210Vocabulary4NCAL10todoStatusEv@Base 4:4.9.3
 _ZN8Nepomuk210Vocabulary4NCAL10tzoffsettoEv@Base 4:4.9.3
 _ZN8Nepomuk210Vocabulary4NCAL11AlarmActionEv@Base 4:4.9.3
 _ZN8Nepomuk210Vocabulary4NCAL11EventStatusEv@Base 4:4.9.3
 _ZN8Nepomuk210Vocabulary4NCAL11audioActionEv@Base 4:4.9.3
 _ZN8Nepomuk210Vocabulary4NCAL11delegatedToEv@Base 4:4.9.3
 _ZN8Nepomuk210Vocabulary4NCAL11descriptionEv@Base 4:4.9.3
 _ZN8Nepomuk210Vocabulary4NCAL11draftStatusEv@Base 4:4.9.3
 _ZN8Nepomuk210Vocabulary4NCAL11emailActionEv@Base 4:4.9.3
 _ZN8Nepomuk210Vocabulary4NCAL11eventStatusEv@Base 4:4.9.3
 _ZN8Nepomuk210Vocabulary4NCAL11finalStatusEv@Base 4:4.9.3
 _ZN8Nepomuk210Vocabulary4NCAL11periodBeginEv@Base 4:4.9.3
 _ZN8Nepomuk210Vocabulary4NCAL12AttendeeRoleEv@Base 4:4.9.3
 _ZN8Nepomuk210Vocabulary4NCAL12FreebusyTypeEv@Base 4:4.9.3
 _ZN8Nepomuk210Vocabulary4NCAL12NcalDateTimeEv@Base 4:4.9.3
 _ZN8Nepomuk210Vocabulary4NCAL12bydayWeekdayEv@Base 4:4.9.3
 _ZN8Nepomuk210Vocabulary4NCAL12lastModifiedEv@Base 4:4.9.3
 _ZN8Nepomuk210Vocabulary4NCAL12ncalRelationEv@Base 4:4.9.3
 _ZN8Nepomuk210Vocabulary4NCAL12ncalTimezoneEv@Base 4:4.9.3
 _ZN8Nepomuk210Vocabulary4NCAL12recurrenceIdEv@Base 4:4.9.3
 _ZN8Nepomuk210Vocabulary4NCAL12returnStatusEv@Base 4:4.9.3
 _ZN8Nepomuk210Vocabulary4NCAL12roomUserTypeEv@Base 4:4.9.3
 _ZN8Nepomuk210Vocabulary4NCAL12tzoffsetfromEv@Base 4:4.9.3
 _ZN8Nepomuk210Vocabulary4NCAL13BydayRulePartEv@Base 4:4.9.3
 _ZN8Nepomuk210Vocabulary4NCAL13CalendarScaleEv@Base 4:4.9.3
 _ZN8Nepomuk210Vocabulary4NCAL13JournalStatusEv@Base 4:4.9.3
 _ZN8Nepomuk210Vocabulary4NCAL13RequestStatusEv@Base 4:4.9.3
 _ZN8Nepomuk210Vocabulary4NCAL13_8bitEncodingEv@Base 4:4.9.3
 _ZN8Nepomuk210Vocabulary4NCAL13attachmentUriEv@Base 4:4.9.3
 _ZN8Nepomuk210Vocabulary4NCAL13bydayModifierEv@Base 4:4.9.3
 _ZN8Nepomuk210Vocabulary4NCAL13commentAltRepEv@Base 4:4.9.3
 _ZN8Nepomuk210Vocabulary4NCAL13contactAltRepEv@Base 4:4.9.3
 _ZN8Nepomuk210Vocabulary4NCAL13delegatedFromEv@Base 4:4.9.3
 _ZN8Nepomuk210Vocabulary4NCAL13displayActionEv@Base 4:4.9.3
 _ZN8Nepomuk210Vocabulary4NCAL13groupUserTypeEv@Base 4:4.9.3
 _ZN8Nepomuk210Vocabulary4NCAL13journalStatusEv@Base 4:4.9.3
 _ZN8Nepomuk210Vocabulary4NCAL13ncalNamespaceEv@Base 4:4.9.3
 _ZN8Nepomuk210Vocabulary4NCAL13requestStatusEv@Base 4:4.9.3
 _ZN8Nepomuk210Vocabulary4NCAL13summaryAltRepEv@Base 4:4.9.3
 _ZN8Nepomuk210Vocabulary4NCAL14FreebusyPeriodEv@Base 4:4.9.3
 _ZN8Nepomuk210Vocabulary4NCAL14NcalTimeEntityEv@Base 4:4.9.3
 _ZN8Nepomuk210Vocabulary4NCAL14RecurrenceRuleEv@Base 4:4.9.3
 _ZN8Nepomuk210Vocabulary4NCAL14base64EncodingEv@Base 4:4.9.3
 _ZN8Nepomuk210Vocabulary4NCAL14locationAltRepEv@Base 4:4.9.3
 _ZN8Nepomuk210Vocabulary4NCAL14periodDurationEv@Base 4:4.9.3
 _ZN8Nepomuk210Vocabulary4NCAL14relatedToChildEv@Base 4:4.9.3
 _ZN8Nepomuk210Vocabulary4NCAL15TriggerRelationEv@Base 4:4.9.3
 _ZN8Nepomuk210Vocabulary4NCAL15completedStatusEv@Base 4:4.9.3
 _ZN8Nepomuk210Vocabulary4NCAL15confirmedStatusEv@Base 4:4.9.3
 _ZN8Nepomuk210Vocabulary4NCAL15inProcessStatusEv@Base 4:4.9.3
 _ZN8Nepomuk210Vocabulary4NCAL15involvedContactEv@Base 4:4.9.3
 _ZN8Nepomuk210Vocabulary4NCAL15percentCompleteEv@Base 4:4.9.3
 _ZN8Nepomuk210Vocabulary4NCAL15procedureActionEv@Base 4:4.9.3
 _ZN8Nepomuk210Vocabulary4NCAL15relatedToParentEv@Base 4:4.9.3
 _ZN8Nepomuk210Vocabulary4NCAL15resourcesAltRepEv@Base 4:4.9.3
 _ZN8Nepomuk210Vocabulary4NCAL15tentativeStatusEv@Base 4:4.9.3
 _ZN8Nepomuk210Vocabulary4NCAL15triggerDateTimeEv@Base 4:4.9.3
 _ZN8Nepomuk210Vocabulary4NCAL15triggerDurationEv@Base 4:4.9.3
 _ZN8Nepomuk210Vocabulary4NCAL15unknownUserTypeEv@Base 4:4.9.3
 _ZN8Nepomuk210Vocabulary4NCAL16CalendarUserTypeEv@Base 4:4.9.3
 _ZN8Nepomuk210Vocabulary4NCAL16TimeTransparencyEv@Base 4:4.9.3
 _ZN8Nepomuk210Vocabulary4NCAL16UnionOfEventTodoEv@Base 4:4.9.3
 _ZN8Nepomuk210Vocabulary4NCAL16UnionParentClassEv@Base 4:4.9.3
 _ZN8Nepomuk210Vocabulary4NCAL16busyFreebusyTypeEv@Base 4:4.9.3
 _ZN8Nepomuk210Vocabulary4NCAL16freeFreebusyTypeEv@Base 4:4.9.3
 _ZN8Nepomuk210Vocabulary4NCAL16nrlOntologyGraphEv@Base 4:4.9.3
 _ZN8Nepomuk210Vocabulary4NCAL16relatedToSiblingEv@Base 4:4.9.3
 _ZN8Nepomuk210Vocabulary4NCAL16resourceUserTypeEv@Base 4:4.9.3
 _ZN8Nepomuk210Vocabulary4NCAL17attachmentContentEv@Base 4:4.9.3
 _ZN8Nepomuk210Vocabulary4NCAL17descriptionAltRepEv@Base 4:4.9.3
 _ZN8Nepomuk210Vocabulary4NCAL17needsActionStatusEv@Base 4:4.9.3
 _ZN8Nepomuk210Vocabulary4NCAL17requestStatusDataEv@Base 4:4.9.3
 _ZN8Nepomuk210Vocabulary4NCAL17statusDescriptionEv@Base 4:4.9.3
 _ZN8Nepomuk210Vocabulary4NCAL17thisAndPriorRangeEv@Base 4:4.9.3
 _ZN8Nepomuk210Vocabulary4NCAL18AttachmentEncodingEv@Base 4:4.9.3
 _ZN8Nepomuk210Vocabulary4NCAL18CalendarDataObjectEv@Base 4:4.9.3
 _ZN8Nepomuk210Vocabulary4NCAL18TimezoneObservanceEv@Base 4:4.9.3
 _ZN8Nepomuk210Vocabulary4NCAL18endTriggerRelationEv@Base 4:4.9.3
 _ZN8Nepomuk210Vocabulary4NCAL18individualUserTypeEv@Base 4:4.9.3
 _ZN8Nepomuk210Vocabulary4NCAL18nonParticipantRoleEv@Base 4:4.9.3
 _ZN8Nepomuk210Vocabulary4NCAL18opaqueTransparencyEv@Base 4:4.9.3
 _ZN8Nepomuk210Vocabulary4NCAL18optParticipantRoleEv@Base 4:4.9.3
 _ZN8Nepomuk210Vocabulary4NCAL18reqParticipantRoleEv@Base 4:4.9.3
 _ZN8Nepomuk210Vocabulary4NCAL18thisAndFutureRangeEv@Base 4:4.9.3
 _ZN8Nepomuk210Vocabulary4NCAL19AttendeeOrOrganizerEv@Base 4:4.9.3
 _ZN8Nepomuk210Vocabulary4NCAL19ParticipationStatusEv@Base 4:4.9.3
 _ZN8Nepomuk210Vocabulary4NCAL19RecurrenceFrequencyEv@Base 4:4.9.3
 _ZN8Nepomuk210Vocabulary4NCAL19cancelledTodoStatusEv@Base 4:4.9.3
 _ZN8Nepomuk210Vocabulary4NCAL20AccessClassificationEv@Base 4:4.9.3
 _ZN8Nepomuk210Vocabulary4NCAL20RecurrenceIdentifierEv@Base 4:4.9.3
 _ZN8Nepomuk210Vocabulary4NCAL20UnionOfEventFreebusyEv@Base 4:4.9.3
 _ZN8Nepomuk210Vocabulary4NCAL20cancelledEventStatusEv@Base 4:4.9.3
 _ZN8Nepomuk210Vocabulary4NCAL20publicClassificationEv@Base 4:4.9.3
 _ZN8Nepomuk210Vocabulary4NCAL20recurrenceIdDateTimeEv@Base 4:4.9.3
 _ZN8Nepomuk210Vocabulary4NCAL20startTriggerRelationEv@Base 4:4.9.3
 _ZN8Nepomuk210Vocabulary4NCAL21UnionOfAlarmEventTodoEv@Base 4:4.9.3
 _ZN8Nepomuk210Vocabulary4NCAL21privateClassificationEv@Base 4:4.9.3
 _ZN8Nepomuk210Vocabulary4NCAL22cancelledJournalStatusEv@Base 4:4.9.3
 _ZN8Nepomuk210Vocabulary4NCAL22gregorianCalendarScaleEv@Base 4:4.9.3
 _ZN8Nepomuk210Vocabulary4NCAL23UnionOfEventJournalTodoEv@Base 4:4.9.3
 _ZN8Nepomuk210Vocabulary4NCAL23transparentTransparencyEv@Base 4:4.9.3
 _ZN8Nepomuk210Vocabulary4NCAL25RecurrenceIdentifierRangeEv@Base 4:4.9.3
 _ZN8Nepomuk210Vocabulary4NCAL25busyTentativeFreebusyTypeEv@Base 4:4.9.3
 _ZN8Nepomuk210Vocabulary4NCAL26confidentialClassificationEv@Base 4:4.9.3
 _ZN8Nepomuk210Vocabulary4NCAL27acceptedParticipationStatusEv@Base 4:4.9.3
 _ZN8Nepomuk210Vocabulary4NCAL27busyUnavailableFreebusyTypeEv@Base 4:4.9.3
 _ZN8Nepomuk210Vocabulary4NCAL27declinedParticipationStatusEv@Base 4:4.9.3
 _ZN8Nepomuk210Vocabulary4NCAL28UnionOfAlarmEventJournalTodoEv@Base 4:4.9.3
 _ZN8Nepomuk210Vocabulary4NCAL28completedParticipationStatusEv@Base 4:4.9.3
 _ZN8Nepomuk210Vocabulary4NCAL28delegatedParticipationStatusEv@Base 4:4.9.3
 _ZN8Nepomuk210Vocabulary4NCAL28inProcessParticipationStatusEv@Base 4:4.9.3
 _ZN8Nepomuk210Vocabulary4NCAL28tentativeParticipationStatusEv@Base 4:4.9.3
 _ZN8Nepomuk210Vocabulary4NCAL29UnionOfAlarmEventFreebusyTodoEv@Base 4:4.9.3
 _ZN8Nepomuk210Vocabulary4NCAL30needsActionParticipationStatusEv@Base 4:4.9.3
 _ZN8Nepomuk210Vocabulary4NCAL31UnionOfEventFreebusyJournalTodoEv@Base 4:4.9.3
 _ZN8Nepomuk210Vocabulary4NCAL31UnionOfEventJournalTimezoneTodoEv@Base 4:4.9.3
 _ZN8Nepomuk210Vocabulary4NCAL36UnionOfAlarmEventFreebusyJournalTodoEv@Base 4:4.9.3
 _ZN8Nepomuk210Vocabulary4NCAL3dirEv@Base 4:4.9.3
 _ZN8Nepomuk210Vocabulary4NCAL3dueEv@Base 4:4.9.3
 _ZN8Nepomuk210Vocabulary4NCAL3geoEv@Base 4:4.9.3
 _ZN8Nepomuk210Vocabulary4NCAL3uidEv@Base 4:4.9.3
 _ZN8Nepomuk210Vocabulary4NCAL3urlEv@Base 4:4.9.3
 _ZN8Nepomuk210Vocabulary4NCAL49UnionOfTimezoneObservanceEventJournalTimezoneTodoEv@Base 4:4.9.3
 _ZN8Nepomuk210Vocabulary4NCAL4TodoEv@Base 4:4.9.3
 _ZN8Nepomuk210Vocabulary4NCAL4dateEv@Base 4:4.9.3
 _ZN8Nepomuk210Vocabulary4NCAL4freqEv@Base 4:4.9.3
 _ZN8Nepomuk210Vocabulary4NCAL4roleEv@Base 4:4.9.3
 _ZN8Nepomuk210Vocabulary4NCAL4rsvpEv@Base 4:4.9.3
 _ZN8Nepomuk210Vocabulary4NCAL4tzidEv@Base 4:4.9.3
 _ZN8Nepomuk210Vocabulary4NCAL4wkstEv@Base 4:4.9.3
 _ZN8Nepomuk210Vocabulary4NCAL50UnionOfTimezoneObservanceEventFreebusyTimezoneTodoEv@Base 4:4.9.3
 _ZN8Nepomuk210Vocabulary4NCAL57UnionOfTimezoneObservanceEventFreebusyJournalTimezoneTodoEv@Base 4:4.9.3
 _ZN8Nepomuk210Vocabulary4NCAL5AlarmEv@Base 4:4.9.3
 _ZN8Nepomuk210Vocabulary4NCAL5EventEv@Base 4:4.9.3
 _ZN8Nepomuk210Vocabulary4NCAL5bydayEv@Base 4:4.9.3
 _ZN8Nepomuk210Vocabulary4NCAL5countEv@Base 4:4.9.3
 _ZN8Nepomuk210Vocabulary4NCAL5dailyEv@Base 4:4.9.3
 _ZN8Nepomuk210Vocabulary4NCAL5dtendEv@Base 4:4.9.3
 _ZN8Nepomuk210Vocabulary4NCAL5rangeEv@Base 4:4.9.3
 _ZN8Nepomuk210Vocabulary4NCAL5rdateEv@Base 4:4.9.3
 _ZN8Nepomuk210Vocabulary4NCAL5rruleEv@Base 4:4.9.3
 _ZN8Nepomuk210Vocabulary4NCAL5tzurlEv@Base 4:4.9.3
 _ZN8Nepomuk210Vocabulary4NCAL5untilEv@Base 4:4.9.3
 _ZN8Nepomuk210Vocabulary4NCAL6actionEv@Base 4:4.9.3
 _ZN8Nepomuk210Vocabulary4NCAL6attachEv@Base 4:4.9.3
 _ZN8Nepomuk210Vocabulary4NCAL6byhourEv@Base 4:4.9.3
 _ZN8Nepomuk210Vocabulary4NCAL6cutypeEv@Base 4:4.9.3
 _ZN8Nepomuk210Vocabulary4NCAL6exdateEv@Base 4:4.9.3
 _ZN8Nepomuk210Vocabulary4NCAL6exruleEv@Base 4:4.9.3
 _ZN8Nepomuk210Vocabulary4NCAL6fbtypeEv@Base 4:4.9.3
 _ZN8Nepomuk210Vocabulary4NCAL6fridayEv@Base 4:4.9.3
 _ZN8Nepomuk210Vocabulary4NCAL6hourlyEv@Base 4:4.9.3
 _ZN8Nepomuk210Vocabulary4NCAL6memberEv@Base 4:4.9.3
 _ZN8Nepomuk210Vocabulary4NCAL6methodEv@Base 4:4.9.3
 _ZN8Nepomuk210Vocabulary4NCAL6mondayEv@Base 4:4.9.3
 _ZN8Nepomuk210Vocabulary4NCAL6prodidEv@Base 4:4.9.3
 _ZN8Nepomuk210Vocabulary4NCAL6repeatEv@Base 4:4.9.3
 _ZN8Nepomuk210Vocabulary4NCAL6sentByEv@Base 4:4.9.3
 _ZN8Nepomuk210Vocabulary4NCAL6sundayEv@Base 4:4.9.3
 _ZN8Nepomuk210Vocabulary4NCAL6transpEv@Base 4:4.9.3
 _ZN8Nepomuk210Vocabulary4NCAL6tznameEv@Base 4:4.9.3
 _ZN8Nepomuk210Vocabulary4NCAL6weeklyEv@Base 4:4.9.3
 _ZN8Nepomuk210Vocabulary4NCAL6yearlyEv@Base 4:4.9.3
 _ZN8Nepomuk210Vocabulary4NCAL7JournalEv@Base 4:4.9.3
 _ZN8Nepomuk210Vocabulary4NCAL7TriggerEv@Base 4:4.9.3
 _ZN8Nepomuk210Vocabulary4NCAL7WeekdayEv@Base 4:4.9.3
 _ZN8Nepomuk210Vocabulary4NCAL7bymonthEv@Base 4:4.9.3
 _ZN8Nepomuk210Vocabulary4NCAL7commentEv@Base 4:4.9.3
 _ZN8Nepomuk210Vocabulary4NCAL7contactEv@Base 4:4.9.3
 _ZN8Nepomuk210Vocabulary4NCAL7createdEv@Base 4:4.9.3
 _ZN8Nepomuk210Vocabulary4NCAL7dtstampEv@Base 4:4.9.3
 _ZN8Nepomuk210Vocabulary4NCAL7dtstartEv@Base 4:4.9.3
 _ZN8Nepomuk210Vocabulary4NCAL7fmttypeEv@Base 4:4.9.3
 _ZN8Nepomuk210Vocabulary4NCAL7monthlyEv@Base 4:4.9.3
 _ZN8Nepomuk210Vocabulary4NCAL7relatedEv@Base 4:4.9.3
 _ZN8Nepomuk210Vocabulary4NCAL7summaryEv@Base 4:4.9.3
 _ZN8Nepomuk210Vocabulary4NCAL7triggerEv@Base 4:4.9.3
 _ZN8Nepomuk210Vocabulary4NCAL7tuesdayEv@Base 4:4.9.3
 _ZN8Nepomuk210Vocabulary4NCAL7versionEv@Base 4:4.9.3
 _ZN8Nepomuk210Vocabulary4NCAL8AttendeeEv@Base 4:4.9.3
 _ZN8Nepomuk210Vocabulary4NCAL8CalendarEv@Base 4:4.9.3
 _ZN8Nepomuk210Vocabulary4NCAL8FreebusyEv@Base 4:4.9.3
 _ZN8Nepomuk210Vocabulary4NCAL8TimezoneEv@Base 4:4.9.3
 _ZN8Nepomuk210Vocabulary4NCAL8attendeeEv@Base 4:4.9.3
 _ZN8Nepomuk210Vocabulary4NCAL8byminuteEv@Base 4:4.9.3
 _ZN8Nepomuk210Vocabulary4NCAL8bysecondEv@Base 4:4.9.3
 _ZN8Nepomuk210Vocabulary4NCAL8bysetposEv@Base 4:4.9.3
 _ZN8Nepomuk210Vocabulary4NCAL8byweeknoEv@Base 4:4.9.3
 _ZN8Nepomuk210Vocabulary4NCAL8calscaleEv@Base 4:4.9.3
 _ZN8Nepomuk210Vocabulary4NCAL8dateTimeEv@Base 4:4.9.3
 _ZN8Nepomuk210Vocabulary4NCAL8daylightEv@Base 4:4.9.3
 _ZN8Nepomuk210Vocabulary4NCAL8durationEv@Base 4:4.9.3
 _ZN8Nepomuk210Vocabulary4NCAL8encodingEv@Base 4:4.9.3
 _ZN8Nepomuk210Vocabulary4NCAL8freebusyEv@Base 4:4.9.3
 _ZN8Nepomuk210Vocabulary4NCAL8hasAlarmEv@Base 4:4.9.3
 _ZN8Nepomuk210Vocabulary4NCAL8intervalEv@Base 4:4.9.3
 _ZN8Nepomuk210Vocabulary4NCAL8locationEv@Base 4:4.9.3
 _ZN8Nepomuk210Vocabulary4NCAL8minutelyEv@Base 4:4.9.3
 _ZN8Nepomuk210Vocabulary4NCAL8partstatEv@Base 4:4.9.3
 _ZN8Nepomuk210Vocabulary4NCAL8priorityEv@Base 4:4.9.3
 _ZN8Nepomuk210Vocabulary4NCAL8saturdayEv@Base 4:4.9.3
 _ZN8Nepomuk210Vocabulary4NCAL8secondlyEv@Base 4:4.9.3
 _ZN8Nepomuk210Vocabulary4NCAL8sequenceEv@Base 4:4.9.3
 _ZN8Nepomuk210Vocabulary4NCAL8standardEv@Base 4:4.9.3
 _ZN8Nepomuk210Vocabulary4NCAL8thursdayEv@Base 4:4.9.3
 _ZN8Nepomuk210Vocabulary4NCAL9OrganizerEv@Base 4:4.9.3
 _ZN8Nepomuk210Vocabulary4NCAL9byyeardayEv@Base 4:4.9.3
 _ZN8Nepomuk210Vocabulary4NCAL9chairRoleEv@Base 4:4.9.3
 _ZN8Nepomuk210Vocabulary4NCAL9completedEv@Base 4:4.9.3
 _ZN8Nepomuk210Vocabulary4NCAL9componentEv@Base 4:4.9.3
 _ZN8Nepomuk210Vocabulary4NCAL9ncalClassEv@Base 4:4.9.3
 _ZN8Nepomuk210Vocabulary4NCAL9organizerEv@Base 4:4.9.3
 _ZN8Nepomuk210Vocabulary4NCAL9periodEndEv@Base 4:4.9.3
 _ZN8Nepomuk210Vocabulary4NCAL9resourcesEv@Base 4:4.9.3
 _ZN8Nepomuk210Vocabulary4NCAL9wednesdayEv@Base 4:4.9.3
 _ZN8Nepomuk210Vocabulary4NUAO10FocusEventEv@Base 4:4.9.3
 _ZN8Nepomuk210Vocabulary4NUAO10UsageEventEv@Base 4:4.9.3
 _ZN8Nepomuk210Vocabulary4NUAO10eventCountEv@Base 4:4.9.3
 _ZN8Nepomuk210Vocabulary4NUAO10firstEventEv@Base 4:4.9.3
 _ZN8Nepomuk210Vocabulary4NUAO10firstUsageEv@Base 4:4.9.3
 _ZN8Nepomuk210Vocabulary4NUAO10usageCountEv@Base 4:4.9.3
 _ZN8Nepomuk210Vocabulary4NUAO12DesktopEventEv@Base 4:4.9.3
 _ZN8Nepomuk210Vocabulary4NUAO13nuaoNamespaceEv@Base 4:4.9.3
 _ZN8Nepomuk210Vocabulary4NUAO15initiatingAgentEv@Base 4:4.9.3
 _ZN8Nepomuk210Vocabulary4NUAO16lastModificationEv@Base 4:4.9.3
 _ZN8Nepomuk210Vocabulary4NUAO17ModificationEventEv@Base 4:4.9.3
 _ZN8Nepomuk210Vocabulary4NUAO17firstModificationEv@Base 4:4.9.3
 _ZN8Nepomuk210Vocabulary4NUAO17modificationCountEv@Base 4:4.9.3
 _ZN8Nepomuk210Vocabulary4NUAO17targettedResourceEv@Base 4:4.9.3
 _ZN8Nepomuk210Vocabulary4NUAO18totalEventDurationEv@Base 4:4.9.3
 _ZN8Nepomuk210Vocabulary4NUAO18totalFocusDurationEv@Base 4:4.9.3
 _ZN8Nepomuk210Vocabulary4NUAO18totalUsageDurationEv@Base 4:4.9.3
 _ZN8Nepomuk210Vocabulary4NUAO25totalModificationDurationEv@Base 4:4.9.3
 _ZN8Nepomuk210Vocabulary4NUAO3endEv@Base 4:4.9.3
 _ZN8Nepomuk210Vocabulary4NUAO5EventEv@Base 4:4.9.3
 _ZN8Nepomuk210Vocabulary4NUAO5startEv@Base 4:4.9.3
 _ZN8Nepomuk210Vocabulary4NUAO8durationEv@Base 4:4.9.3
 _ZN8Nepomuk210Vocabulary4NUAO8involvesEv@Base 4:4.9.3
 _ZN8Nepomuk210Vocabulary4NUAO8metadataEv@Base 4:4.9.3
 _ZN8Nepomuk210Vocabulary4NUAO9lastEventEv@Base 4:4.9.3
 _ZN8Nepomuk210Vocabulary4NUAO9lastUsageEv@Base 4:4.9.3
 _ZN8Nepomuk210Vocabulary4PIMO10CollectionEv@Base 4:4.9.3
 _ZN8Nepomuk210Vocabulary4PIMO10PersonRoleEv@Base 4:4.9.3
 _ZN8Nepomuk210Vocabulary4PIMO10occurrenceEv@Base 4:4.9.3
 _ZN8Nepomuk210Vocabulary4PIMO10roleHolderEv@Base 4:4.9.3
 _ZN8Nepomuk210Vocabulary4PIMO10superTopicEv@Base 4:4.9.3
 _ZN8Nepomuk210Vocabulary4PIMO11AssociationEv@Base 4:4.9.3
 _ZN8Nepomuk210Vocabulary4PIMO11PersonGroupEv@Base 4:4.9.3
 _ZN8Nepomuk210Vocabulary4PIMO11SocialEventEv@Base 4:4.9.3
 _ZN8Nepomuk210Vocabulary4PIMO11createdPimoEv@Base 4:4.9.3
 _ZN8Nepomuk210Vocabulary4PIMO11hasLocationEv@Base 4:4.9.3
 _ZN8Nepomuk210Vocabulary4PIMO11isDefinedByEv@Base 4:4.9.3
 _ZN8Nepomuk210Vocabulary4PIMO11isWriteableEv@Base 4:4.9.3
 _ZN8Nepomuk210Vocabulary4PIMO11roleContextEv@Base 4:4.9.3
 _ZN8Nepomuk210Vocabulary4PIMO11taskDueTimeEv@Base 4:4.9.3
 _ZN8Nepomuk210Vocabulary4PIMO12ClassOrThingEv@Base 4:4.9.3
 _ZN8Nepomuk210Vocabulary4PIMO12FullPimoViewEv@Base 4:4.9.3
 _ZN8Nepomuk210Vocabulary4PIMO12OrganizationEv@Base 4:4.9.3
 _ZN8Nepomuk210Vocabulary4PIMO12hasOtherSlotEv@Base 4:4.9.3
 _ZN8Nepomuk210Vocabulary4PIMO12hasRootTopicEv@Base 4:4.9.3
 _ZN8Nepomuk210Vocabulary4PIMO12isLocationOfEv@Base 4:4.9.3
 _ZN8Nepomuk210Vocabulary4PIMO12organizationEv@Base 4:4.9.3
 _ZN8Nepomuk210Vocabulary4PIMO13AbstractClassEv@Base 4:4.9.3
 _ZN8Nepomuk210Vocabulary4PIMO13ConcreteClassEv@Base 4:4.9.3
 _ZN8Nepomuk210Vocabulary4PIMO13locatedWithinEv@Base 4:4.9.3
 _ZN8Nepomuk210Vocabulary4PIMO13pimoNamespaceEv@Base 4:4.9.3
 _ZN8Nepomuk210Vocabulary4PIMO14ProcessConceptEv@Base 4:4.9.3
 _ZN8Nepomuk210Vocabulary4PIMO14objectPropertyEv@Base 4:4.9.3
 _ZN8Nepomuk210Vocabulary4PIMO16GroundingClosureEv@Base 4:4.9.3
 _ZN8Nepomuk210Vocabulary4PIMO16InferOccurrencesEv@Base 4:4.9.3
 _ZN8Nepomuk210Vocabulary4PIMO16LogicalMediaTypeEv@Base 4:4.9.3
 _ZN8Nepomuk210Vocabulary4PIMO16attendingMeetingEv@Base 4:4.9.3
 _ZN8Nepomuk210Vocabulary4PIMO16containsLocationEv@Base 4:4.9.3
 _ZN8Nepomuk210Vocabulary4PIMO16datatypePropertyEv@Base 4:4.9.3
 _ZN8Nepomuk210Vocabulary4PIMO16nrlOntologyGraphEv@Base 4:4.9.3
 _ZN8Nepomuk210Vocabulary4PIMO17OccurrenceClosureEv@Base 4:4.9.3
 _ZN8Nepomuk210Vocabulary4PIMO17associationMemberEv@Base 4:4.9.3
 _ZN8Nepomuk210Vocabulary4PIMO17hasLocalNamespaceEv@Base 4:4.9.3
 _ZN8Nepomuk210Vocabulary4PIMO18OrganizationMemberEv@Base 4:4.9.3
 _ZN8Nepomuk210Vocabulary4PIMO18hasGlobalNamespaceEv@Base 4:4.9.3
 _ZN8Nepomuk210Vocabulary4PIMO19groundingOccurrenceEv@Base 4:4.9.3
 _ZN8Nepomuk210Vocabulary4PIMO20associationEffectualEv@Base 4:4.9.3
 _ZN8Nepomuk210Vocabulary4PIMO21hasOrganizationMemberEv@Base 4:4.9.3
 _ZN8Nepomuk210Vocabulary4PIMO21referencingOccurrenceEv@Base 4:4.9.3
 _ZN8Nepomuk210Vocabulary4PIMO22hasOtherRepresentationEv@Base 4:4.9.3
 _ZN8Nepomuk210Vocabulary4PIMO22isOrganizationMemberOfEv@Base 4:4.9.3
 _ZN8Nepomuk210Vocabulary4PIMO24PersonalInformationModelEv@Base 4:4.9.3
 _ZN8Nepomuk210Vocabulary4PIMO24groundingForDeletedThingEv@Base 4:4.9.3
 _ZN8Nepomuk210Vocabulary4PIMO25hasOtherConceptualizationEv@Base 4:4.9.3
 _ZN8Nepomuk210Vocabulary4PIMO27hasDeprecatedRepresentationEv@Base 4:4.9.3
 _ZN8Nepomuk210Vocabulary4PIMO35ClassOrThingOrPropertyOrAssociationEv@Base 4:4.9.3
 _ZN8Nepomuk210Vocabulary4PIMO37RuleViewSpecificationGroundingClosureEv@Base 4:4.9.3
 _ZN8Nepomuk210Vocabulary4PIMO37RuleViewSpecificationInferOccurrencesEv@Base 4:4.9.3
 _ZN8Nepomuk210Vocabulary4PIMO38RuleViewSpecificationOccurrenceClosureEv@Base 4:4.9.3
 _ZN8Nepomuk210Vocabulary4PIMO3TagEv@Base 4:4.9.3
 _ZN8Nepomuk210Vocabulary4PIMO3altEv@Base 4:4.9.3
 _ZN8Nepomuk210Vocabulary4PIMO3latEv@Base 4:4.9.3
 _ZN8Nepomuk210Vocabulary4PIMO4CityEv@Base 4:4.9.3
 _ZN8Nepomuk210Vocabulary4PIMO4NoteEv@Base 4:4.9.3
 _ZN8Nepomuk210Vocabulary4PIMO4RoomEv@Base 4:4.9.3
 _ZN8Nepomuk210Vocabulary4PIMO4TaskEv@Base 4:4.9.3
 _ZN8Nepomuk210Vocabulary4PIMO5AgentEv@Base 4:4.9.3
 _ZN8Nepomuk210Vocabulary4PIMO5EventEv@Base 4:4.9.3
 _ZN8Nepomuk210Vocabulary4PIMO5StateEv@Base 4:4.9.3
 _ZN8Nepomuk210Vocabulary4PIMO5ThingEv@Base 4:4.9.3
 _ZN8Nepomuk210Vocabulary4PIMO5TopicEv@Base 4:4.9.3
 _ZN8Nepomuk210Vocabulary4PIMO5dtendEv@Base 4:4.9.3
 _ZN8Nepomuk210Vocabulary4PIMO6PersonEv@Base 4:4.9.3
 _ZN8Nepomuk210Vocabulary4PIMO6hasTagEv@Base 4:4.9.3
 _ZN8Nepomuk210Vocabulary4PIMO6partOfEv@Base 4:4.9.3
 _ZN8Nepomuk210Vocabulary4PIMO7CountryEv@Base 4:4.9.3
 _ZN8Nepomuk210Vocabulary4PIMO7MeetingEv@Base 4:4.9.3
 _ZN8Nepomuk210Vocabulary4PIMO7ProjectEv@Base 4:4.9.3
 _ZN8Nepomuk210Vocabulary4PIMO7attendsEv@Base 4:4.9.3
 _ZN8Nepomuk210Vocabulary4PIMO7creatorEv@Base 4:4.9.3
 _ZN8Nepomuk210Vocabulary4PIMO7dtstartEv@Base 4:4.9.3
 _ZN8Nepomuk210Vocabulary4PIMO7hasPartEv@Base 4:4.9.3
 _ZN8Nepomuk210Vocabulary4PIMO8AttendeeEv@Base 4:4.9.3
 _ZN8Nepomuk210Vocabulary4PIMO8BlogPostEv@Base 4:4.9.3
 _ZN8Nepomuk210Vocabulary4PIMO8BuildingEv@Base 4:4.9.3
 _ZN8Nepomuk210Vocabulary4PIMO8ContractEv@Base 4:4.9.3
 _ZN8Nepomuk210Vocabulary4PIMO8DocumentEv@Base 4:4.9.3
 _ZN8Nepomuk210Vocabulary4PIMO8LocationEv@Base 4:4.9.3
 _ZN8Nepomuk210Vocabulary4PIMO8attendeeEv@Base 4:4.9.3
 _ZN8Nepomuk210Vocabulary4PIMO8durationEv@Base 4:4.9.3
 _ZN8Nepomuk210Vocabulary4PIMO8isTagForEv@Base 4:4.9.3
 _ZN8Nepomuk210Vocabulary4PIMO8jabberIdEv@Base 4:4.9.3
 _ZN8Nepomuk210Vocabulary4PIMO8pimoLongEv@Base 4:4.9.3
 _ZN8Nepomuk210Vocabulary4PIMO8subTopicEv@Base 4:4.9.3
 _ZN8Nepomuk210Vocabulary4PIMO8tagLabelEv@Base 4:4.9.3
 _ZN8Nepomuk210Vocabulary4PIMO8wikiTextEv@Base 4:4.9.3
 _ZN8Nepomuk210Vocabulary4PIMO9ClassRoleEv@Base 4:4.9.3
 _ZN8Nepomuk210Vocabulary4PIMO9LocatableEv@Base 4:4.9.3
 _ZN8Nepomuk210Vocabulary4PIMO9classRoleEv@Base 4:4.9.3
 _ZN8Nepomuk210Vocabulary4PIMO9hasFolderEv@Base 4:4.9.3
 _ZN8Nepomuk210Vocabulary4PIMO9isRelatedEv@Base 4:4.9.3
 _ZN8Nepomuk210Vocabulary5NEXIF10cfaPatternEv@Base 4:4.9.3
 _ZN8Nepomuk210Vocabulary5NEXIF10colorSpaceEv@Base 4:4.9.3
 _ZN8Nepomuk210Vocabulary5NEXIF10fileSourceEv@Base 4:4.9.3
 _ZN8Nepomuk210Vocabulary5NEXIF10ifdPointerEv@Base 4:4.9.3
 _ZN8Nepomuk210Vocabulary5NEXIF10imageWidthEv@Base 4:4.9.3
 _ZN8Nepomuk210Vocabulary5NEXIF10pictTakingEv@Base 4:4.9.3
 _ZN8Nepomuk210Vocabulary5NEXIF10resolutionEv@Base 4:4.9.3
 _ZN8Nepomuk210Vocabulary5NEXIF10saturationEv@Base 4:4.9.3
 _ZN8Nepomuk210Vocabulary5NEXIF10subSecTimeEv@Base 4:4.9.3
 _ZN8Nepomuk210Vocabulary5NEXIF10subsecondsEv@Base 4:4.9.3
 _ZN8Nepomuk210Vocabulary5NEXIF10whitePointEv@Base 4:4.9.3
 _ZN8Nepomuk210Vocabulary5NEXIF11compressionEv@Base 4:4.9.3
 _ZN8Nepomuk210Vocabulary5NEXIF11exifVersionEv@Base 4:4.9.3
 _ZN8Nepomuk210Vocabulary5NEXIF11flashEnergyEv@Base 4:4.9.3
 _ZN8Nepomuk210Vocabulary5NEXIF11focalLengthEv@Base 4:4.9.3
 _ZN8Nepomuk210Vocabulary5NEXIF11gainControlEv@Base 4:4.9.3
 _ZN8Nepomuk210Vocabulary5NEXIF11gpsMapDatumEv@Base 4:4.9.3
 _ZN8Nepomuk210Vocabulary5NEXIF11gpsSpeedRefEv@Base 4:4.9.3
 _ZN8Nepomuk210Vocabulary5NEXIF11gpsTrackRefEv@Base 4:4.9.3
 _ZN8Nepomuk210Vocabulary5NEXIF11imageConfigEv@Base 4:4.9.3
 _ZN8Nepomuk210Vocabulary5NEXIF11imageLengthEv@Base 4:4.9.3
 _ZN8Nepomuk210Vocabulary5NEXIF11interopInfoEv@Base 4:4.9.3
 _ZN8Nepomuk210Vocabulary5NEXIF11lightSourceEv@Base 4:4.9.3
 _ZN8Nepomuk210Vocabulary5NEXIF11orientationEv@Base 4:4.9.3
 _ZN8Nepomuk210Vocabulary5NEXIF11pimContrastEv@Base 4:4.9.3
 _ZN8Nepomuk210Vocabulary5NEXIF11relatedFileEv@Base 4:4.9.3
 _ZN8Nepomuk210Vocabulary5NEXIF11subjectAreaEv@Base 4:4.9.3
 _ZN8Nepomuk210Vocabulary5NEXIF11userCommentEv@Base 4:4.9.3
 _ZN8Nepomuk210Vocabulary5NEXIF11versionInfoEv@Base 4:4.9.3
 _ZN8Nepomuk210Vocabulary5NEXIF11xResolutionEv@Base 4:4.9.3
 _ZN8Nepomuk210Vocabulary5NEXIF11yResolutionEv@Base 4:4.9.3
 _ZN8Nepomuk210Vocabulary5NEXIF12exposureModeEv@Base 4:4.9.3
 _ZN8Nepomuk210Vocabulary5NEXIF12exposureTimeEv@Base 4:4.9.3
 _ZN8Nepomuk210Vocabulary5NEXIF12gpsDateStampEv@Base 4:4.9.3
 _ZN8Nepomuk210Vocabulary5NEXIF12gpsTimeStampEv@Base 4:4.9.3
 _ZN8Nepomuk210Vocabulary5NEXIF12gpsVersionIDEv@Base 4:4.9.3
 _ZN8Nepomuk210Vocabulary5NEXIF12meteringModeEv@Base 4:4.9.3
 _ZN8Nepomuk210Vocabulary5NEXIF12pimSharpnessEv@Base 4:4.9.3
 _ZN8Nepomuk210Vocabulary5NEXIF12rowsPerStripEv@Base 4:4.9.3
 _ZN8Nepomuk210Vocabulary5NEXIF12stripOffsetsEv@Base 4:4.9.3
 _ZN8Nepomuk210Vocabulary5NEXIF12whiteBalanceEv@Base 4:4.9.3
 _ZN8Nepomuk210Vocabulary5NEXIF13apertureValueEv@Base 4:4.9.3
 _ZN8Nepomuk210Vocabulary5NEXIF13bitsPerSampleEv@Base 4:4.9.3
 _ZN8Nepomuk210Vocabulary5NEXIF13dateAndOrTimeEv@Base 4:4.9.3
 _ZN8Nepomuk210Vocabulary5NEXIF13exifAttributeEv@Base 4:4.9.3
 _ZN8Nepomuk210Vocabulary5NEXIF13exposureIndexEv@Base 4:4.9.3
 _ZN8Nepomuk210Vocabulary5NEXIF13gpsSatellitesEv@Base 4:4.9.3
 _ZN8Nepomuk210Vocabulary5NEXIF13imageUniqueIDEv@Base 4:4.9.3
 _ZN8Nepomuk210Vocabulary5NEXIF13pimBrightnessEv@Base 4:4.9.3
 _ZN8Nepomuk210Vocabulary5NEXIF13pimSaturationEv@Base 4:4.9.3
 _ZN8Nepomuk210Vocabulary5NEXIF13sensingMethodEv@Base 4:4.9.3
 _ZN8Nepomuk210Vocabulary5NEXIF14customRenderedEv@Base 4:4.9.3
 _ZN8Nepomuk210Vocabulary5NEXIF14exifIFDPointerEv@Base 4:4.9.3
 _ZN8Nepomuk210Vocabulary5NEXIF14gpsAltitudeRefEv@Base 4:4.9.3
 _ZN8Nepomuk210Vocabulary5NEXIF14gpsDestBearingEv@Base 4:4.9.3
 _ZN8Nepomuk210Vocabulary5NEXIF14gpsLatitudeRefEv@Base 4:4.9.3
 _ZN8Nepomuk210Vocabulary5NEXIF14gpsMeasureModeEv@Base 4:4.9.3
 _ZN8Nepomuk210Vocabulary5NEXIF14nexifNamespaceEv@Base 4:4.9.3
 _ZN8Nepomuk210Vocabulary5NEXIF14resolutionUnitEv@Base 4:4.9.3
 _ZN8Nepomuk210Vocabulary5NEXIF15brightnessValueEv@Base 4:4.9.3
 _ZN8Nepomuk210Vocabulary5NEXIF15exposureProgramEv@Base 4:4.9.3
 _ZN8Nepomuk210Vocabulary5NEXIF15flashpixVersionEv@Base 4:4.9.3
 _ZN8Nepomuk210Vocabulary5NEXIF15gpsDestDistanceEv@Base 4:4.9.3
 _ZN8Nepomuk210Vocabulary5NEXIF15gpsDifferentialEv@Base 4:4.9.3
 _ZN8Nepomuk210Vocabulary5NEXIF15gpsImgDirectionEv@Base 4:4.9.3
 _ZN8Nepomuk210Vocabulary5NEXIF15gpsLongitudeRefEv@Base 4:4.9.3
 _ZN8Nepomuk210Vocabulary5NEXIF15imageDataStructEv@Base 4:4.9.3
 _ZN8Nepomuk210Vocabulary5NEXIF15isoSpeedRatingsEv@Base 4:4.9.3
 _ZN8Nepomuk210Vocabulary5NEXIF15pimColorBalanceEv@Base 4:4.9.3
 _ZN8Nepomuk210Vocabulary5NEXIF15pixelXDimensionEv@Base 4:4.9.3
 _ZN8Nepomuk210Vocabulary5NEXIF15pixelYDimensionEv@Base 4:4.9.3
 _ZN8Nepomuk210Vocabulary5NEXIF15samplesPerPixelEv@Base 4:4.9.3
 _ZN8Nepomuk210Vocabulary5NEXIF15stripByteCountsEv@Base 4:4.9.3
 _ZN8Nepomuk210Vocabulary5NEXIF15subjectDistanceEv@Base 4:4.9.3
 _ZN8Nepomuk210Vocabulary5NEXIF15subjectLocationEv@Base 4:4.9.3
 _ZN8Nepomuk210Vocabulary5NEXIF16dateTimeOriginalEv@Base 4:4.9.3
 _ZN8Nepomuk210Vocabulary5NEXIF16digitalZoomRatioEv@Base 4:4.9.3
 _ZN8Nepomuk210Vocabulary5NEXIF16imageDescriptionEv@Base 4:4.9.3
 _ZN8Nepomuk210Vocabulary5NEXIF16maxApertureValueEv@Base 4:4.9.3
 _ZN8Nepomuk210Vocabulary5NEXIF16nrlOntologyGraphEv@Base 4:4.9.3
 _ZN8Nepomuk210Vocabulary5NEXIF16relatedSoundFileEv@Base 4:4.9.3
 _ZN8Nepomuk210Vocabulary5NEXIF16sceneCaptureTypeEv@Base 4:4.9.3
 _ZN8Nepomuk210Vocabulary5NEXIF16transferFunctionEv@Base 4:4.9.3
 _ZN8Nepomuk210Vocabulary5NEXIF16yCbCrPositioningEv@Base 4:4.9.3
 _ZN8Nepomuk210Vocabulary5NEXIF16yCbCrSubSamplingEv@Base 4:4.9.3
 _ZN8Nepomuk210Vocabulary5NEXIF17dateTimeDigitizedEv@Base 4:4.9.3
 _ZN8Nepomuk210Vocabulary5NEXIF17exposureBiasValueEv@Base 4:4.9.3
 _ZN8Nepomuk210Vocabulary5NEXIF17gpsDestBearingRefEv@Base 4:4.9.3
 _ZN8Nepomuk210Vocabulary5NEXIF17gpsInfoIFDPointerEv@Base 4:4.9.3
 _ZN8Nepomuk210Vocabulary5NEXIF17relatedImageWidthEv@Base 4:4.9.3
 _ZN8Nepomuk210Vocabulary5NEXIF17shutterSpeedValueEv@Base 4:4.9.3
 _ZN8Nepomuk210Vocabulary5NEXIF17yCbCrCoefficientsEv@Base 4:4.9.3
 _ZN8Nepomuk210Vocabulary5NEXIF18gpsAreaInformationEv@Base 4:4.9.3
 _ZN8Nepomuk210Vocabulary5NEXIF18gpsDestDistanceRefEv@Base 4:4.9.3
 _ZN8Nepomuk210Vocabulary5NEXIF18gpsDestLatitudeRefEv@Base 4:4.9.3
 _ZN8Nepomuk210Vocabulary5NEXIF18gpsImgDirectionRefEv@Base 4:4.9.3
 _ZN8Nepomuk210Vocabulary5NEXIF18imageDataCharacterEv@Base 4:4.9.3
 _ZN8Nepomuk210Vocabulary5NEXIF18relatedImageLengthEv@Base 4:4.9.3
 _ZN8Nepomuk210Vocabulary5NEXIF18subSecTimeOriginalEv@Base 4:4.9.3
 _ZN8Nepomuk210Vocabulary5NEXIF19gpsDestLongitudeRefEv@Base 4:4.9.3
 _ZN8Nepomuk210Vocabulary5NEXIF19gpsProcessingMethodEv@Base 4:4.9.3
 _ZN8Nepomuk210Vocabulary5NEXIF19planarConfigurationEv@Base 4:4.9.3
 _ZN8Nepomuk210Vocabulary5NEXIF19referenceBlackWhiteEv@Base 4:4.9.3
 _ZN8Nepomuk210Vocabulary5NEXIF19spectralSensitivityEv@Base 4:4.9.3
 _ZN8Nepomuk210Vocabulary5NEXIF19subSecTimeDigitizedEv@Base 4:4.9.3
 _ZN8Nepomuk210Vocabulary5NEXIF20subjectDistanceRangeEv@Base 4:4.9.3
 _ZN8Nepomuk210Vocabulary5NEXIF21focalLengthIn35mmFilmEv@Base 4:4.9.3
 _ZN8Nepomuk210Vocabulary5NEXIF21focalPlaneXResolutionEv@Base 4:4.9.3
 _ZN8Nepomuk210Vocabulary5NEXIF21focalPlaneYResolutionEv@Base 4:4.9.3
 _ZN8Nepomuk210Vocabulary5NEXIF21interoperabilityIndexEv@Base 4:4.9.3
 _ZN8Nepomuk210Vocabulary5NEXIF21jpegInterchangeFormatEv@Base 4:4.9.3
 _ZN8Nepomuk210Vocabulary5NEXIF21primaryChromaticitiesEv@Base 4:4.9.3
 _ZN8Nepomuk210Vocabulary5NEXIF22compressedBitsPerPixelEv@Base 4:4.9.3
 _ZN8Nepomuk210Vocabulary5NEXIF22relatedImageFileFormatEv@Base 4:4.9.3
 _ZN8Nepomuk210Vocabulary5NEXIF23componentsConfigurationEv@Base 4:4.9.3
 _ZN8Nepomuk210Vocabulary5NEXIF23interoperabilityVersionEv@Base 4:4.9.3
 _ZN8Nepomuk210Vocabulary5NEXIF24deviceSettingDescriptionEv@Base 4:4.9.3
 _ZN8Nepomuk210Vocabulary5NEXIF24focalPlaneResolutionUnitEv@Base 4:4.9.3
 _ZN8Nepomuk210Vocabulary5NEXIF24spatialFrequencyResponseEv@Base 4:4.9.3
 _ZN8Nepomuk210Vocabulary5NEXIF25photometricInterpretationEv@Base 4:4.9.3
 _ZN8Nepomuk210Vocabulary5NEXIF26interoperabilityIFDPointerEv@Base 4:4.9.3
 _ZN8Nepomuk210Vocabulary5NEXIF27jpegInterchangeFormatLengthEv@Base 4:4.9.3
 _ZN8Nepomuk210Vocabulary5NEXIF28printImageMatchingIFDPointerEv@Base 4:4.9.3
 _ZN8Nepomuk210Vocabulary5NEXIF2mmEv@Base 4:4.9.3
 _ZN8Nepomuk210Vocabulary5NEXIF3geoEv@Base 4:4.9.3
 _ZN8Nepomuk210Vocabulary5NEXIF3gpsEv@Base 4:4.9.3
 _ZN8Nepomuk210Vocabulary5NEXIF4dateEv@Base 4:4.9.3
 _ZN8Nepomuk210Vocabulary5NEXIF4makeEv@Base 4:4.9.3
 _ZN8Nepomuk210Vocabulary5NEXIF4oecfEv@Base 4:4.9.3
 _ZN8Nepomuk210Vocabulary5NEXIF5PhotoEv@Base 4:4.9.3
 _ZN8Nepomuk210Vocabulary5NEXIF5flashEv@Base 4:4.9.3
 _ZN8Nepomuk210Vocabulary5NEXIF5meterEv@Base 4:4.9.3
 _ZN8Nepomuk210Vocabulary5NEXIF5modelEv@Base 4:4.9.3
 _ZN8Nepomuk210Vocabulary5NEXIF5tagidEv@Base 4:4.9.3
 _ZN8Nepomuk210Vocabulary5NEXIF5widthEv@Base 4:4.9.3
 _ZN8Nepomuk210Vocabulary5NEXIF6artistEv@Base 4:4.9.3
 _ZN8Nepomuk210Vocabulary5NEXIF6gpsDOPEv@Base 4:4.9.3
 _ZN8Nepomuk210Vocabulary5NEXIF6heightEv@Base 4:4.9.3
 _ZN8Nepomuk210Vocabulary5NEXIF6lengthEv@Base 4:4.9.3
 _ZN8Nepomuk210Vocabulary5NEXIF7fNumberEv@Base 4:4.9.3
 _ZN8Nepomuk210Vocabulary5NEXIF7gpsDestEv@Base 4:4.9.3
 _ZN8Nepomuk210Vocabulary5NEXIF7gpsInfoEv@Base 4:4.9.3
 _ZN8Nepomuk210Vocabulary5NEXIF7pimInfoEv@Base 4:4.9.3
 _ZN8Nepomuk210Vocabulary5NEXIF7secondsEv@Base 4:4.9.3
 _ZN8Nepomuk210Vocabulary5NEXIF7unknownEv@Base 4:4.9.3
 _ZN8Nepomuk210Vocabulary5NEXIF8contrastEv@Base 4:4.9.3
 _ZN8Nepomuk210Vocabulary5NEXIF8datatypeEv@Base 4:4.9.3
 _ZN8Nepomuk210Vocabulary5NEXIF8dateTimeEv@Base 4:4.9.3
 _ZN8Nepomuk210Vocabulary5NEXIF8exifdataEv@Base 4:4.9.3
 _ZN8Nepomuk210Vocabulary5NEXIF8gpsSpeedEv@Base 4:4.9.3
 _ZN8Nepomuk210Vocabulary5NEXIF8gpsTrackEv@Base 4:4.9.3
 _ZN8Nepomuk210Vocabulary5NEXIF8softwareEv@Base 4:4.9.3
 _ZN8Nepomuk210Vocabulary5NEXIF8userInfoEv@Base 4:4.9.3
 _ZN8Nepomuk210Vocabulary5NEXIF9copyrightEv@Base 4:4.9.3
 _ZN8Nepomuk210Vocabulary5NEXIF9gpsStatusEv@Base 4:4.9.3
 _ZN8Nepomuk210Vocabulary5NEXIF9makerNoteEv@Base 4:4.9.3
 _ZN8Nepomuk210Vocabulary5NEXIF9recOffsetEv@Base 4:4.9.3
 _ZN8Nepomuk210Vocabulary5NEXIF9sceneTypeEv@Base 4:4.9.3
 _ZN8Nepomuk210Vocabulary5NEXIF9sharpnessEv@Base 4:4.9.3
 _ZN8Nepomuk210Vocabulary5NEXIF9subsecondEv@Base 4:4.9.3
 _ZN8Nepomuk210Vocabulary5NEXIF9tagNumberEv@Base 4:4.9.3
 _ZN8Nepomuk211addPropertyERK5QListI4QUrlERKS1_RKS0_I8QVariantERK14KComponentData@Base 4:4.9.3
 _ZN8Nepomuk211errorStringENS_9ErrorCodeE@Base 4:4.9.3
 _ZN8Nepomuk211setPropertyERK5QListI4QUrlERKS1_RKS0_I8QVariantERK14KComponentData@Base 4:4.9.3
 _ZN8Nepomuk212versionMajorEv@Base 4:4.9.3
 _ZN8Nepomuk212versionMinorEv@Base 4:4.9.3
 _ZN8Nepomuk213versionStringEv@Base 4:4.9.3
 _ZN8Nepomuk214SimpleResource11addPropertyERK4QUrlRK8QVariant@Base 4:4.9.3
 _ZN8Nepomuk214SimpleResource11addPropertyERK4QUrlRKS0_@Base 4:4.9.3
 _ZN8Nepomuk214SimpleResource11setPropertyERK4QUrlRK5QListI8QVariantE@Base 4:4.9.3
 _ZN8Nepomuk214SimpleResource11setPropertyERK4QUrlRK8QVariant@Base 4:4.9.3
 _ZN8Nepomuk214SimpleResource11setPropertyERK4QUrlRKS0_@Base 4:4.9.3
 _ZN8Nepomuk214SimpleResource13addPropertiesERK10QMultiHashI4QUrl8QVariantE@Base 4:4.9.3
 _ZN8Nepomuk214SimpleResource13setPropertiesERK10QMultiHashI4QUrl8QVariantE@Base 4:4.9.3
 _ZN8Nepomuk214SimpleResource15addPropertyNodeERK4QUrlRKN7Soprano4NodeE@Base 4:4.9.3
 _ZN8Nepomuk214SimpleResource15setPropertyNodeERK4QUrlRKN7Soprano4NodeE@Base 4:4.9.3
 _ZN8Nepomuk214SimpleResource5clearEv@Base 4:4.9.3
 _ZN8Nepomuk214SimpleResource6removeERK4QUrl@Base 4:4.9.3
 _ZN8Nepomuk214SimpleResource6removeERK4QUrlRK8QVariant@Base 4:4.9.3
 _ZN8Nepomuk214SimpleResource6setUriERK4QUrl@Base 4:4.9.3
 _ZN8Nepomuk214SimpleResource7addTypeERK4QUrl@Base 4:4.9.3
 _ZN8Nepomuk214SimpleResource8setTypesERK5QListI4QUrlE@Base 4:4.9.3
 _ZN8Nepomuk214SimpleResource9removeAllERK4QUrlRK8QVariant@Base 4:4.9.3
 _ZN8Nepomuk214SimpleResourceC1ERK10QMultiHashI4QUrl8QVariantE@Base 4:4.9.3
 _ZN8Nepomuk214SimpleResourceC1ERK4QUrl@Base 4:4.9.3
 _ZN8Nepomuk214SimpleResourceC1ERKS0_@Base 4:4.9.3
 _ZN8Nepomuk214SimpleResourceC2ERK10QMultiHashI4QUrl8QVariantE@Base 4:4.9.3
 _ZN8Nepomuk214SimpleResourceC2ERK4QUrl@Base 4:4.9.3
 _ZN8Nepomuk214SimpleResourceC2ERKS0_@Base 4:4.9.3
 _ZN8Nepomuk214SimpleResourceD0Ev@Base 4:4.9.3
 _ZN8Nepomuk214SimpleResourceD1Ev@Base 4:4.9.3
 _ZN8Nepomuk214SimpleResourceD2Ev@Base 4:4.9.3
 _ZN8Nepomuk214SimpleResourceaSERKS0_@Base 4:4.9.3
 _ZN8Nepomuk214createResourceERK5QListI4QUrlERK7QStringS7_RK14KComponentData@Base 4:4.9.3
 _ZN8Nepomuk214mergeResourcesERK4QUrlS2_RK14KComponentData@Base 4:4.9.3
 _ZN8Nepomuk214mergeResourcesERK5QListI4QUrlERK14KComponentData@Base 4:4.9.3
 _ZN8Nepomuk214removePropertyERK5QListI4QUrlERKS1_RKS0_I8QVariantERK14KComponentData@Base 4:4.9.3
 _ZN8Nepomuk214storeResourcesERKNS_19SimpleResourceGraphENS_23StoreIdentificationModeE6QFlagsINS_18StoreResourcesFlagEERK5QHashI4QUrl8QVariantERK14KComponentData@Base 4:4.9.3
 _ZN8Nepomuk214versionReleaseEv@Base 4:4.9.3
 _ZN8Nepomuk215ResourceManager10s_instanceE@Base 4:4.9.3
 _ZN8Nepomuk215ResourceManager11notifyErrorERK7QStringi@Base 4:4.9.3
 _ZN8Nepomuk215ResourceManager11qt_metacallEN11QMetaObject4CallEiPPv@Base 4:4.9.3
 _ZN8Nepomuk215ResourceManager11qt_metacastEPKc@Base 4:4.9.3
 _ZN8Nepomuk215ResourceManager14removeResourceERK7QString@Base 4:4.9.3
 _ZN8Nepomuk215ResourceManager16cleanupResourcesEv@Base 4:4.10.0
 _ZN8Nepomuk215ResourceManager16resourceModifiedERK7QString@Base 4:4.9.3
 _ZN8Nepomuk215ResourceManager16staticMetaObjectE@Base 4:4.9.3
 _ZN8Nepomuk215ResourceManager17generateUniqueUriERK7QString@Base 4:4.9.3
 _ZN8Nepomuk215ResourceManager17slotPropertyAddedERKNS_8ResourceERKNS_5Types8PropertyERK8QVariant@Base 4:4.9.3
 _ZN8Nepomuk215ResourceManager19slotPropertyRemovedERKNS_8ResourceERKNS_5Types8PropertyERK8QVariant@Base 4:4.9.3
 _ZN8Nepomuk215ResourceManager20nepomukSystemStartedEv@Base 4:4.9.3
 _ZN8Nepomuk215ResourceManager20nepomukSystemStoppedEv@Base 4:4.9.3
 _ZN8Nepomuk215ResourceManager20setOverrideMainModelEPN7Soprano5ModelE@Base 4:4.9.3
 _ZN8Nepomuk215ResourceManager4initEv@Base 4:4.9.3
 _ZN8Nepomuk215ResourceManager5errorERK7QStringi@Base 4:4.9.3
 _ZN8Nepomuk215ResourceManager8instanceEv@Base 4:4.9.3
 _ZN8Nepomuk215ResourceManager9mainModelEv@Base 4:4.9.3
 _ZN8Nepomuk215ResourceManagerC1Ev@Base 4:4.9.3
 _ZN8Nepomuk215ResourceManagerC2Ev@Base 4:4.9.3
 _ZN8Nepomuk215ResourceManagerD0Ev@Base 4:4.9.3
 _ZN8Nepomuk215ResourceManagerD1Ev@Base 4:4.9.3
 _ZN8Nepomuk215ResourceManagerD2Ev@Base 4:4.9.3
 _ZN8Nepomuk215ResourceWatcher10removeTypeERKNS_5Types5ClassE@Base 4:4.9.3
 _ZN8Nepomuk215ResourceWatcher11addPropertyERKNS_5Types8PropertyE@Base 4:4.9.3
 _ZN8Nepomuk215ResourceWatcher11addResourceERK4QUrl@Base 4:4.9.3
 _ZN8Nepomuk215ResourceWatcher11addResourceERKNS_8ResourceE@Base 4:4.9.3
 _ZN8Nepomuk215ResourceWatcher11qt_metacallEN11QMetaObject4CallEiPPv@Base 4:4.9.3
 _ZN8Nepomuk215ResourceWatcher11qt_metacastEPKc@Base 4:4.9.3
 _ZN8Nepomuk215ResourceWatcher12setResourcesERK5QListINS_8ResourceEE@Base 4:4.9.3
 _ZN8Nepomuk215ResourceWatcher13propertyAddedERKNS_8ResourceERKNS_5Types8PropertyERK8QVariant@Base 4:4.9.3
 _ZN8Nepomuk215ResourceWatcher13setPropertiesERK5QListINS_5Types8PropertyEE@Base 4:4.9.3
 _ZN8Nepomuk215ResourceWatcher14removePropertyERKNS_5Types8PropertyE@Base 4:4.9.3
 _ZN8Nepomuk215ResourceWatcher14removeResourceERK4QUrl@Base 4:4.9.3
 _ZN8Nepomuk215ResourceWatcher14removeResourceERKNS_8ResourceE@Base 4:4.9.3
 _ZN8Nepomuk215ResourceWatcher15propertyChangedERKNS_8ResourceERKNS_5Types8PropertyERK5QListI8QVariantESC_@Base 4:4.9.3
 _ZN8Nepomuk215ResourceWatcher15propertyRemovedERKNS_8ResourceERKNS_5Types8PropertyERK8QVariant@Base 4:4.9.3
 _ZN8Nepomuk215ResourceWatcher15resourceCreatedERKNS_8ResourceERK5QListI4QUrlE@Base 4:4.9.3
 _ZN8Nepomuk215ResourceWatcher15resourceRemovedERK4QUrlRK5QListIS1_E@Base 4:4.9.3
 _ZN8Nepomuk215ResourceWatcher16staticMetaObjectE@Base 4:4.9.3
 _ZN8Nepomuk215ResourceWatcher17resourceTypeAddedERKNS_8ResourceERKNS_5Types5ClassE@Base 4:4.9.3
#MISSING: 4:4.10.0# _ZN8Nepomuk215ResourceWatcher17slotPropertyAddedERK7QStringS3_RK5QListI8QVariantE@Base 4:4.9.3
 _ZN8Nepomuk215ResourceWatcher19resourceTypeRemovedERKNS_8ResourceERKNS_5Types5ClassE@Base 4:4.9.3
 _ZN8Nepomuk215ResourceWatcher19slotPropertyChangedERK7QStringS3_RK5QListI8QVariantES8_@Base 4:4.9.3
#MISSING: 4:4.10.0# _ZN8Nepomuk215ResourceWatcher19slotPropertyRemovedERK7QStringS3_RK5QListI8QVariantE@Base 4:4.9.3
 _ZN8Nepomuk215ResourceWatcher19slotResourceCreatedERK7QStringRK11QStringList@Base 4:4.9.3
 _ZN8Nepomuk215ResourceWatcher19slotResourceRemovedERK7QStringRK11QStringList@Base 4:4.9.3
 _ZN8Nepomuk215ResourceWatcher22slotResourceTypesAddedERK7QStringRK11QStringList@Base 4:4.9.3
 _ZN8Nepomuk215ResourceWatcher24slotResourceTypesRemovedERK7QStringRK11QStringList@Base 4:4.9.3
 _ZN8Nepomuk215ResourceWatcher4stopEv@Base 4:4.9.3
 _ZN8Nepomuk215ResourceWatcher5startEv@Base 4:4.9.3
 _ZN8Nepomuk215ResourceWatcher7addTypeERKNS_5Types5ClassE@Base 4:4.9.3
 _ZN8Nepomuk215ResourceWatcher8setTypesERK5QListINS_5Types5ClassEE@Base 4:4.9.3
 _ZN8Nepomuk215ResourceWatcherC1EP7QObject@Base 4:4.9.3
 _ZN8Nepomuk215ResourceWatcherC2EP7QObject@Base 4:4.9.3
 _ZN8Nepomuk215ResourceWatcherD0Ev@Base 4:4.9.3
 _ZN8Nepomuk215ResourceWatcherD1Ev@Base 4:4.9.3
 _ZN8Nepomuk215ResourceWatcherD2Ev@Base 4:4.9.3
 _ZN8Nepomuk215importResourcesERK4KUrlN7Soprano16RdfSerializationERK7QStringNS_23StoreIdentificationModeE6QFlagsINS_18StoreResourcesFlagEERK5QHashI4QUrl8QVariantERK14KComponentData@Base 4:4.9.3
 _ZN8Nepomuk215removeResourcesERK5QListI4QUrlE6QFlagsINS_11RemovalFlagEERK14KComponentData@Base 4:4.9.3
 _ZN8Nepomuk216removePropertiesERK5QListI4QUrlES4_RK14KComponentData@Base 4:4.9.3
 _ZN8Nepomuk217CreateResourceJob11qt_metacallEN11QMetaObject4CallEiPPv@Base 4:4.9.3
 _ZN8Nepomuk217CreateResourceJob11qt_metacastEPKc@Base 4:4.9.3
 _ZN8Nepomuk217CreateResourceJob16staticMetaObjectE@Base 4:4.9.3
 _ZN8Nepomuk217CreateResourceJob20slotDBusCallFinishedEP23QDBusPendingCallWatcher@Base 4:4.9.3
 _ZN8Nepomuk217CreateResourceJob5startEv@Base 4:4.9.3
 _ZN8Nepomuk217CreateResourceJobC1ERK5QListI4QUrlERK7QStringS8_RK14KComponentData@Base 4:4.9.3
 _ZN8Nepomuk217CreateResourceJobC2ERK5QListI4QUrlERK7QStringS8_RK14KComponentData@Base 4:4.9.3
 _ZN8Nepomuk217CreateResourceJobD0Ev@Base 4:4.9.3
 _ZN8Nepomuk217CreateResourceJobD1Ev@Base 4:4.9.3
 _ZN8Nepomuk217CreateResourceJobD2Ev@Base 4:4.9.3
 _ZN8Nepomuk217StoreResourcesJob11qt_metacallEN11QMetaObject4CallEiPPv@Base 4:4.9.3
 _ZN8Nepomuk217StoreResourcesJob11qt_metacastEPKc@Base 4:4.9.3
 _ZN8Nepomuk217StoreResourcesJob16staticMetaObjectE@Base 4:4.9.3
 _ZN8Nepomuk217StoreResourcesJob5startEv@Base 4:4.9.3
 _ZN8Nepomuk217StoreResourcesJob7Private23_k_slotDBusCallFinishedEP23QDBusPendingCallWatcher@Base 4:4.9.3
 _ZN8Nepomuk217StoreResourcesJobC1ERKNS_19SimpleResourceGraphENS_23StoreIdentificationModeE6QFlagsINS_18StoreResourcesFlagEERK5QHashI4QUrl8QVariantERK14KComponentData@Base 4:4.9.3
 _ZN8Nepomuk217StoreResourcesJobC2ERKNS_19SimpleResourceGraphENS_23StoreIdentificationModeE6QFlagsINS_18StoreResourcesFlagEERK5QHashI4QUrl8QVariantERK14KComponentData@Base 4:4.9.3
 _ZN8Nepomuk217StoreResourcesJobD0Ev@Base 4:4.9.3
 _ZN8Nepomuk217StoreResourcesJobD1Ev@Base 4:4.9.3
 _ZN8Nepomuk217StoreResourcesJobD2Ev@Base 4:4.9.3
 _ZN8Nepomuk217describeResourcesERK5QListI4QUrlE6QFlagsINS_21DescribeResourcesFlagEES4_@Base 4:4.9.3
 _ZN8Nepomuk219SimpleResourceGraph12addStatementERKN7Soprano4NodeES4_S4_@Base 4:4.9.3
 _ZN8Nepomuk219SimpleResourceGraph12addStatementERKN7Soprano9StatementE@Base 4:4.9.3
 _ZN8Nepomuk219SimpleResourceGraph3addERK4QUrlS3_RK8QVariant@Base 4:4.9.3
 _ZN8Nepomuk219SimpleResourceGraph3setERK4QUrlS3_RK8QVariant@Base 4:4.9.3
 _ZN8Nepomuk219SimpleResourceGraph5clearEv@Base 4:4.9.3
 _ZN8Nepomuk219SimpleResourceGraph6insertERKNS_14SimpleResourceE@Base 4:4.9.3
 _ZN8Nepomuk219SimpleResourceGraph6removeERK4QUrl@Base 4:4.9.3
 _ZN8Nepomuk219SimpleResourceGraph6removeERK4QUrlS3_RK8QVariant@Base 4:4.9.3
 _ZN8Nepomuk219SimpleResourceGraph6removeERKNS_14SimpleResourceE@Base 4:4.9.3
 _ZN8Nepomuk219SimpleResourceGraph9removeAllERK4QUrlS3_RK8QVariant@Base 4:4.9.3
 _ZN8Nepomuk219SimpleResourceGraphC1ERK4QSetINS_14SimpleResourceEE@Base 4:4.9.3
 _ZN8Nepomuk219SimpleResourceGraphC1ERK5QListINS_14SimpleResourceEE@Base 4:4.9.3
 _ZN8Nepomuk219SimpleResourceGraphC1ERKNS_14SimpleResourceE@Base 4:4.9.3
 _ZN8Nepomuk219SimpleResourceGraphC1ERKS0_@Base 4:4.9.3
 _ZN8Nepomuk219SimpleResourceGraphC1Ev@Base 4:4.9.3
 _ZN8Nepomuk219SimpleResourceGraphC2ERK4QSetINS_14SimpleResourceEE@Base 4:4.9.3
 _ZN8Nepomuk219SimpleResourceGraphC2ERK5QListINS_14SimpleResourceEE@Base 4:4.9.3
 _ZN8Nepomuk219SimpleResourceGraphC2ERKNS_14SimpleResourceE@Base 4:4.9.3
 _ZN8Nepomuk219SimpleResourceGraphC2ERKS0_@Base 4:4.9.3
 _ZN8Nepomuk219SimpleResourceGraphC2Ev@Base 4:4.9.3
 _ZN8Nepomuk219SimpleResourceGraphD1Ev@Base 4:4.9.3
 _ZN8Nepomuk219SimpleResourceGraphD2Ev@Base 4:4.9.3
 _ZN8Nepomuk219SimpleResourceGraphaSERKS0_@Base 4:4.9.3
 _ZN8Nepomuk219SimpleResourceGraphixERK4QUrl@Base 4:4.9.3
 _ZN8Nepomuk219SimpleResourceGraphlsERKNS_14SimpleResourceE@Base 4:4.9.3
 _ZN8Nepomuk219SimpleResourceGraphpLERKS0_@Base 4:4.9.3
 _ZN8Nepomuk220DescribeResourcesJob11qt_metacallEN11QMetaObject4CallEiPPv@Base 4:4.9.3
 _ZN8Nepomuk220DescribeResourcesJob11qt_metacastEPKc@Base 4:4.9.3
 _ZN8Nepomuk220DescribeResourcesJob16staticMetaObjectE@Base 4:4.9.3
 _ZN8Nepomuk220DescribeResourcesJob20slotDBusCallFinishedEP23QDBusPendingCallWatcher@Base 4:4.9.3
 _ZN8Nepomuk220DescribeResourcesJob5startEv@Base 4:4.9.3
 _ZN8Nepomuk220DescribeResourcesJobC1ERK5QListI4QUrlE6QFlagsINS_21DescribeResourcesFlagEES5_@Base 4:4.9.3
 _ZN8Nepomuk220DescribeResourcesJobC2ERK5QListI4QUrlE6QFlagsINS_21DescribeResourcesFlagEES5_@Base 4:4.9.3
 _ZN8Nepomuk220DescribeResourcesJobD0Ev@Base 4:4.9.3
 _ZN8Nepomuk220DescribeResourcesJobD1Ev@Base 4:4.9.3
 _ZN8Nepomuk220DescribeResourcesJobD2Ev@Base 4:4.9.3
 _ZN8Nepomuk223removeDataByApplicationE6QFlagsINS_11RemovalFlagEERK14KComponentData@Base 4:4.9.3
 _ZN8Nepomuk223removeDataByApplicationERK5QListI4QUrlE6QFlagsINS_11RemovalFlagEERK14KComponentData@Base 4:4.9.3
 _ZN8Nepomuk23Tag7allTagsEv@Base 4:4.9.3
 _ZN8Nepomuk23TagC1ERK4QUrl@Base 4:4.9.3
 _ZN8Nepomuk23TagC1ERK4QUrlS3_@Base 4:4.9.3
 _ZN8Nepomuk23TagC1ERK7QString@Base 4:4.9.3
 _ZN8Nepomuk23TagC1ERK7QStringRK4QUrl@Base 4:4.9.3
 _ZN8Nepomuk23TagC1ERKNS_8ResourceE@Base 4:4.9.3
 _ZN8Nepomuk23TagC1ERKS0_@Base 4:4.9.3
 _ZN8Nepomuk23TagC1Ev@Base 4:4.9.3
 _ZN8Nepomuk23TagC2ERK4QUrl@Base 4:4.9.3
 _ZN8Nepomuk23TagC2ERK4QUrlS3_@Base 4:4.9.3
 _ZN8Nepomuk23TagC2ERK7QString@Base 4:4.9.3
 _ZN8Nepomuk23TagC2ERK7QStringRK4QUrl@Base 4:4.9.3
 _ZN8Nepomuk23TagC2ERKNS_8ResourceE@Base 4:4.9.3
 _ZN8Nepomuk23TagC2ERKS0_@Base 4:4.9.3
 _ZN8Nepomuk23TagC2Ev@Base 4:4.9.3
 _ZN8Nepomuk23TagD0Ev@Base 4:4.9.3
 _ZN8Nepomuk23TagD1Ev@Base 4:4.9.3
 _ZN8Nepomuk23TagD2Ev@Base 4:4.9.3
 _ZN8Nepomuk23TagaSERKS0_@Base 4:4.9.3
 _ZN8Nepomuk24FileC1ERK4KUrl@Base 4:4.9.3
 _ZN8Nepomuk24FileC1ERKNS_8ResourceE@Base 4:4.9.3
 _ZN8Nepomuk24FileC2ERK4KUrl@Base 4:4.9.3
 _ZN8Nepomuk24FileC2ERKNS_8ResourceE@Base 4:4.9.3
 _ZN8Nepomuk24FileD0Ev@Base 4:4.9.3
 _ZN8Nepomuk24FileD1Ev@Base 4:4.9.3
 _ZN8Nepomuk24FileD2Ev@Base 4:4.9.3
 _ZN8Nepomuk24FileaSERK4KUrl@Base 4:4.9.3
 _ZN8Nepomuk25Query10SimpleTerm10setSubTermERKNS0_4TermE@Base 4:4.9.3
 _ZN8Nepomuk25Query10SimpleTermC1EPNS0_11TermPrivateE@Base 4:4.9.3
 _ZN8Nepomuk25Query10SimpleTermC1ERKNS0_4TermE@Base 4:4.9.3
 _ZN8Nepomuk25Query10SimpleTermC2EPNS0_11TermPrivateE@Base 4:4.9.3
 _ZN8Nepomuk25Query10SimpleTermC2ERKNS0_4TermE@Base 4:4.9.3
 _ZN8Nepomuk25Query10SimpleTermD1Ev@Base 4:4.9.3
 _ZN8Nepomuk25Query10SimpleTermD2Ev@Base 4:4.9.3
 _ZN8Nepomuk25Query11LiteralTerm8setValueERKN7Soprano12LiteralValueE@Base 4:4.9.3
 _ZN8Nepomuk25Query11LiteralTermC1ERKN7Soprano12LiteralValueE@Base 4:4.9.3
 _ZN8Nepomuk25Query11LiteralTermC1ERKS1_@Base 4:4.9.3
 _ZN8Nepomuk25Query11LiteralTermC2ERKN7Soprano12LiteralValueE@Base 4:4.9.3
 _ZN8Nepomuk25Query11LiteralTermC2ERKS1_@Base 4:4.9.3
 _ZN8Nepomuk25Query11LiteralTermD1Ev@Base 4:4.9.3
 _ZN8Nepomuk25Query11LiteralTermD2Ev@Base 4:4.9.3
 _ZN8Nepomuk25Query11LiteralTermaSERKS1_@Base 4:4.9.3
 _ZN8Nepomuk25Query11QueryParser10parseQueryERK7QString6QFlagsINS1_10ParserFlagEE@Base 4:4.9.3
 _ZN8Nepomuk25Query11QueryParser10parseQueryERK7QString@Base 4:4.9.3
 _ZN8Nepomuk25Query11QueryParser7Private13resolveFieldsERKNS0_4TermE@Base 4:4.9.3
 _ZN8Nepomuk25Query11QueryParserC1Ev@Base 4:4.9.3
 _ZN8Nepomuk25Query11QueryParserC2Ev@Base 4:4.9.3
 _ZN8Nepomuk25Query11QueryParserD1Ev@Base 4:4.9.3
 _ZN8Nepomuk25Query11QueryParserD2Ev@Base 4:4.9.3
 _ZN8Nepomuk25Query12NegationTerm10negateTermERKNS0_4TermE@Base 4:4.9.3
 _ZN8Nepomuk25Query12NegationTermC1ERKS1_@Base 4:4.9.3
 _ZN8Nepomuk25Query12NegationTermC1Ev@Base 4:4.9.3
 _ZN8Nepomuk25Query12NegationTermC2ERKS1_@Base 4:4.9.3
 _ZN8Nepomuk25Query12NegationTermC2Ev@Base 4:4.9.3
 _ZN8Nepomuk25Query12NegationTermD1Ev@Base 4:4.9.3
 _ZN8Nepomuk25Query12NegationTermD2Ev@Base 4:4.9.3
 _ZN8Nepomuk25Query12NegationTermaSERKS1_@Base 4:4.9.3
 _ZN8Nepomuk25Query12OptionalTerm15optionalizeTermERKNS0_4TermE@Base 4:4.9.3
 _ZN8Nepomuk25Query12OptionalTermC1ERKS1_@Base 4:4.9.3
 _ZN8Nepomuk25Query12OptionalTermC1Ev@Base 4:4.9.3
 _ZN8Nepomuk25Query12OptionalTermC2ERKS1_@Base 4:4.9.3
 _ZN8Nepomuk25Query12OptionalTermC2Ev@Base 4:4.9.3
 _ZN8Nepomuk25Query12OptionalTermD1Ev@Base 4:4.9.3
 _ZN8Nepomuk25Query12OptionalTermD2Ev@Base 4:4.9.3
 _ZN8Nepomuk25Query12OptionalTermaSERKS1_@Base 4:4.9.3
 _ZN8Nepomuk25Query12ResourceTerm11setResourceERKNS_8ResourceE@Base 4:4.9.3
 _ZN8Nepomuk25Query12ResourceTermC1ERKNS_8ResourceE@Base 4:4.9.3
 _ZN8Nepomuk25Query12ResourceTermC1ERKS1_@Base 4:4.9.3
 _ZN8Nepomuk25Query12ResourceTermC2ERKNS_8ResourceE@Base 4:4.9.3
 _ZN8Nepomuk25Query12ResourceTermC2ERKS1_@Base 4:4.9.3
 _ZN8Nepomuk25Query12ResourceTermD1Ev@Base 4:4.9.3
 _ZN8Nepomuk25Query12ResourceTermD2Ev@Base 4:4.9.3
 _ZN8Nepomuk25Query12ResourceTermaSERKS1_@Base 4:4.9.3
 _ZN8Nepomuk25Query13standardQueryENS0_13StandardQueryERKNS0_4TermE@Base 4:4.9.3
 _ZN8Nepomuk25Query14ComparisonTerm11setInvertedEb@Base 4:4.9.3
 _ZN8Nepomuk25Query14ComparisonTerm11setPropertyERKNS_5Types8PropertyE@Base 4:4.9.3
 _ZN8Nepomuk25Query14ComparisonTerm13setComparatorENS1_10ComparatorE@Base 4:4.9.3
 _ZN8Nepomuk25Query14ComparisonTerm13setSortWeightEiN2Qt9SortOrderE@Base 4:4.9.3
 _ZN8Nepomuk25Query14ComparisonTerm15setVariableNameERK7QString@Base 4:4.9.3
 _ZN8Nepomuk25Query14ComparisonTerm20setAggregateFunctionENS1_17AggregateFunctionE@Base 4:4.9.3
 _ZN8Nepomuk25Query14ComparisonTermC1ERKNS_5Types8PropertyERKNS0_4TermENS1_10ComparatorE@Base 4:4.9.3
 _ZN8Nepomuk25Query14ComparisonTermC1ERKS1_@Base 4:4.9.3
 _ZN8Nepomuk25Query14ComparisonTermC1Ev@Base 4:4.9.3
 _ZN8Nepomuk25Query14ComparisonTermC2ERKNS_5Types8PropertyERKNS0_4TermENS1_10ComparatorE@Base 4:4.9.3
 _ZN8Nepomuk25Query14ComparisonTermC2ERKS1_@Base 4:4.9.3
 _ZN8Nepomuk25Query14ComparisonTermC2Ev@Base 4:4.9.3
 _ZN8Nepomuk25Query14ComparisonTermD1Ev@Base 4:4.9.3
 _ZN8Nepomuk25Query14ComparisonTermD2Ev@Base 4:4.9.3
 _ZN8Nepomuk25Query14ComparisonTermaSERKS1_@Base 4:4.9.3
 _ZN8Nepomuk25Query14ResultIterator4nextEv@Base 4:4.10.0
 _ZN8Nepomuk25Query14ResultIteratorC1ERK7QStringRK5QHashIS2_NS_5Types8PropertyEE@Base 4:4.10.0
 _ZN8Nepomuk25Query14ResultIteratorC1ERKNS0_5QueryE@Base 4:4.10.0
 _ZN8Nepomuk25Query14ResultIteratorC2ERK7QStringRK5QHashIS2_NS_5Types8PropertyEE@Base 4:4.10.0
 _ZN8Nepomuk25Query14ResultIteratorC2ERKNS0_5QueryE@Base 4:4.10.0
 _ZN8Nepomuk25Query14ResultIteratorD1Ev@Base 4:4.10.0
 _ZN8Nepomuk25Query14ResultIteratorD2Ev@Base 4:4.10.0
 _ZN8Nepomuk25Query14dateRangeQueryERK5QDateS3_6QFlagsINS0_13DateRangeFlagEE@Base 4:4.9.3
 _ZN8Nepomuk25Query16ResourceTypeTerm7setTypeERKNS_5Types5ClassE@Base 4:4.9.3
 _ZN8Nepomuk25Query16ResourceTypeTermC1ERKNS_5Types5ClassE@Base 4:4.9.3
 _ZN8Nepomuk25Query16ResourceTypeTermC1ERKS1_@Base 4:4.9.3
 _ZN8Nepomuk25Query16ResourceTypeTermC2ERKNS_5Types5ClassE@Base 4:4.9.3
 _ZN8Nepomuk25Query16ResourceTypeTermC2ERKS1_@Base 4:4.9.3
 _ZN8Nepomuk25Query16ResourceTypeTermD1Ev@Base 4:4.9.3
 _ZN8Nepomuk25Query16ResourceTypeTermD2Ev@Base 4:4.9.3
 _ZN8Nepomuk25Query16ResourceTypeTermaSERKS1_@Base 4:4.9.3
 _ZN8Nepomuk25Query17registerDBusTypesEv@Base 4:4.9.3
 _ZN8Nepomuk25Query18QueryServiceClient10newEntriesERK5QListINS0_6ResultEE@Base 4:4.9.3
 _ZN8Nepomuk25Query18QueryServiceClient11qt_metacallEN11QMetaObject4CallEiPPv@Base 4:4.9.3
 _ZN8Nepomuk25Query18QueryServiceClient11qt_metacastEPKc@Base 4:4.9.3
 _ZN8Nepomuk25Query18QueryServiceClient11resultCountEi@Base 4:4.9.3
 _ZN8Nepomuk25Query18QueryServiceClient11sparqlQueryERK7QStringRK5QHashIS2_NS_5Types8PropertyEE@Base 4:4.9.3
 _ZN8Nepomuk25Query18QueryServiceClient12desktopQueryERK7QString@Base 4:4.9.3
 _ZN8Nepomuk25Query18QueryServiceClient13blockingQueryERKNS0_5QueryE@Base 4:4.9.3
 _ZN8Nepomuk25Query18QueryServiceClient14entriesRemovedERK5QListI4QUrlE@Base 4:4.9.3
 _ZN8Nepomuk25Query18QueryServiceClient15finishedListingEv@Base 4:4.9.3
 _ZN8Nepomuk25Query18QueryServiceClient15syncSparqlQueryERK7QStringRK5QHashIS2_NS_5Types8PropertyEEPb@Base 4:4.9.3
 _ZN8Nepomuk25Query18QueryServiceClient16serviceAvailableEv@Base 4:4.9.3
 _ZN8Nepomuk25Query18QueryServiceClient16staticMetaObjectE@Base 4:4.9.3
 _ZN8Nepomuk25Query18QueryServiceClient16syncDesktopQueryERK7QStringPb@Base 4:4.9.3
 _ZN8Nepomuk25Query18QueryServiceClient19blockingSparqlQueryERK7QStringRK5QHashIS2_NS_5Types8PropertyEE@Base 4:4.9.3
 _ZN8Nepomuk25Query18QueryServiceClient20blockingDesktopQueryERK7QString@Base 4:4.9.3
 _ZN8Nepomuk25Query18QueryServiceClient26serviceAvailabilityChangedEb@Base 4:4.9.3
 _ZN8Nepomuk25Query18QueryServiceClient5closeEv@Base 4:4.9.3
 _ZN8Nepomuk25Query18QueryServiceClient5errorERK7QString@Base 4:4.9.3
 _ZN8Nepomuk25Query18QueryServiceClient5queryERKNS0_5QueryE@Base 4:4.9.3
 _ZN8Nepomuk25Query18QueryServiceClient7Private17_k_entriesRemovedERK11QStringList@Base 4:4.9.3
 _ZN8Nepomuk25Query18QueryServiceClient7Private18_k_finishedListingEv@Base 4:4.9.3
 _ZN8Nepomuk25Query18QueryServiceClient7Private19_k_handleQueryReplyEP23QDBusPendingCallWatcher@Base 4:4.9.3
 _ZN8Nepomuk25Query18QueryServiceClient7Private20_k_serviceRegisteredERK7QString@Base 4:4.9.3
 _ZN8Nepomuk25Query18QueryServiceClient7Private22_k_serviceUnregisteredERK7QString@Base 4:4.9.3
 _ZN8Nepomuk25Query18QueryServiceClient9syncQueryERKNS0_5QueryEPb@Base 4:4.9.3
 _ZN8Nepomuk25Query18QueryServiceClientC1EP7QObject@Base 4:4.9.3
 _ZN8Nepomuk25Query18QueryServiceClientC2EP7QObject@Base 4:4.9.3
 _ZN8Nepomuk25Query18QueryServiceClientD0Ev@Base 4:4.9.3
 _ZN8Nepomuk25Query18QueryServiceClientD1Ev@Base 4:4.9.3
 _ZN8Nepomuk25Query18QueryServiceClientD2Ev@Base 4:4.9.3
 _ZN8Nepomuk25Query4Term10fromStringERK7QString@Base 4:4.9.3
 _ZN8Nepomuk25Query4Term11fromVariantERKNS_7VariantE@Base 4:4.9.3
 _ZN8Nepomuk25Query4Term12fromPropertyERKNS_5Types8PropertyERKNS_7VariantE@Base 4:4.9.3
 _ZN8Nepomuk25Query4Term13toLiteralTermEv@Base 4:4.9.3
 _ZN8Nepomuk25Query4Term14toNegationTermEv@Base 4:4.9.3
 _ZN8Nepomuk25Query4Term14toOptionalTermEv@Base 4:4.9.3
 _ZN8Nepomuk25Query4Term14toResourceTermEv@Base 4:4.9.3
 _ZN8Nepomuk25Query4Term16toComparisonTermEv@Base 4:4.9.3
 _ZN8Nepomuk25Query4Term18toResourceTypeTermEv@Base 4:4.9.3
 _ZN8Nepomuk25Query4Term8toOrTermEv@Base 4:4.9.3
 _ZN8Nepomuk25Query4Term9toAndTermEv@Base 4:4.9.3
 _ZN8Nepomuk25Query4TermC1EPNS0_11TermPrivateE@Base 4:4.9.3
 _ZN8Nepomuk25Query4TermC1ERKS1_@Base 4:4.9.3
 _ZN8Nepomuk25Query4TermC1Ev@Base 4:4.9.3
 _ZN8Nepomuk25Query4TermC2EPNS0_11TermPrivateE@Base 4:4.9.3
 _ZN8Nepomuk25Query4TermC2ERKS1_@Base 4:4.9.3
 _ZN8Nepomuk25Query4TermC2Ev@Base 4:4.9.3
 _ZN8Nepomuk25Query4TermD1Ev@Base 4:4.9.3
 _ZN8Nepomuk25Query4TermD2Ev@Base 4:4.9.3
 _ZN8Nepomuk25Query4TermaSERKS1_@Base 4:4.9.3
 _ZN8Nepomuk25Query5Query10fromStringERK7QString@Base 4:4.9.3
 _ZN8Nepomuk25Query5Query12fromQueryUrlERK4KUrl@Base 4:4.9.3
 _ZN8Nepomuk25Query5Query13setQueryFlagsE6QFlagsINS1_9QueryFlagEE@Base 4:4.9.3
 _ZN8Nepomuk25Query5Query15RequestPropertyC1ERKNS_5Types8PropertyEb@Base 4:4.9.3
 _ZN8Nepomuk25Query5Query15RequestPropertyC1ERKS2_@Base 4:4.9.3
 _ZN8Nepomuk25Query5Query15RequestPropertyC2ERKNS_5Types8PropertyEb@Base 4:4.9.3
 _ZN8Nepomuk25Query5Query15RequestPropertyC2ERKS2_@Base 4:4.9.3
 _ZN8Nepomuk25Query5Query15RequestPropertyD1Ev@Base 4:4.9.3
 _ZN8Nepomuk25Query5Query15RequestPropertyD2Ev@Base 4:4.9.3
 _ZN8Nepomuk25Query5Query15RequestPropertyaSERKS2_@Base 4:4.9.3
 _ZN8Nepomuk25Query5Query17titleFromQueryUrlERK4KUrl@Base 4:4.9.3
 _ZN8Nepomuk25Query5Query18addRequestPropertyERKNS1_15RequestPropertyE@Base 4:4.9.3
 _ZN8Nepomuk25Query5Query18sparqlFromQueryUrlERK4KUrl@Base 4:4.9.3
 _ZN8Nepomuk25Query5Query20setRequestPropertiesERK5QListINS1_15RequestPropertyEE@Base 4:4.9.3
 _ZN8Nepomuk25Query5Query25setFullTextScoringEnabledEb@Base 4:4.9.3
 _ZN8Nepomuk25Query5Query27setFullTextScoringSortOrderEN2Qt9SortOrderE@Base 4:4.9.3
 _ZN8Nepomuk25Query5Query7setTermERKNS0_4TermE@Base 4:4.9.3
 _ZN8Nepomuk25Query5Query8setLimitEi@Base 4:4.9.3
 _ZN8Nepomuk25Query5Query9setOffsetEi@Base 4:4.9.3
 _ZN8Nepomuk25Query5QueryC1ERKNS0_4TermE@Base 4:4.9.3
 _ZN8Nepomuk25Query5QueryC1ERKS1_@Base 4:4.9.3
 _ZN8Nepomuk25Query5QueryC1Ev@Base 4:4.9.3
 _ZN8Nepomuk25Query5QueryC2ERKNS0_4TermE@Base 4:4.9.3
 _ZN8Nepomuk25Query5QueryC2ERKS1_@Base 4:4.9.3
 _ZN8Nepomuk25Query5QueryC2Ev@Base 4:4.9.3
 _ZN8Nepomuk25Query5QueryD1Ev@Base 4:4.9.3
 _ZN8Nepomuk25Query5QueryD2Ev@Base 4:4.9.3
 _ZN8Nepomuk25Query5QueryaSERKNS0_4TermE@Base 4:4.9.3
 _ZN8Nepomuk25Query5QueryaSERKS1_@Base 4:4.9.3
 _ZN8Nepomuk25Query5qHashERKNS0_4TermE@Base 4:4.9.3
 _ZN8Nepomuk25Query5qHashERKNS0_5QueryE@Base 4:4.9.3
 _ZN8Nepomuk25Query6OrTermC1ERK5QListINS0_4TermEE@Base 4:4.9.3
 _ZN8Nepomuk25Query6OrTermC1ERKNS0_4TermES4_S4_S4_S4_S4_@Base 4:4.9.3
 _ZN8Nepomuk25Query6OrTermC1ERKS1_@Base 4:4.9.3
 _ZN8Nepomuk25Query6OrTermC1Ev@Base 4:4.9.3
 _ZN8Nepomuk25Query6OrTermC2ERK5QListINS0_4TermEE@Base 4:4.9.3
 _ZN8Nepomuk25Query6OrTermC2ERKNS0_4TermES4_S4_S4_S4_S4_@Base 4:4.9.3
 _ZN8Nepomuk25Query6OrTermC2ERKS1_@Base 4:4.9.3
 _ZN8Nepomuk25Query6OrTermC2Ev@Base 4:4.9.3
 _ZN8Nepomuk25Query6OrTermD1Ev@Base 4:4.9.3
 _ZN8Nepomuk25Query6OrTermD2Ev@Base 4:4.9.3
 _ZN8Nepomuk25Query6OrTermaSERKS1_@Base 4:4.9.3
 _ZN8Nepomuk25Query6Result10setExcerptERK7QString@Base 4:4.9.3
 _ZN8Nepomuk25Query6Result18addRequestPropertyERKNS_5Types8PropertyERKN7Soprano4NodeE@Base 4:4.9.3
 _ZN8Nepomuk25Query6Result21setAdditionalBindingsERKN7Soprano10BindingSetE@Base 4:4.9.3
 _ZN8Nepomuk25Query6Result8setScoreEd@Base 4:4.9.3
 _ZN8Nepomuk25Query6ResultC1ERKNS_8ResourceEd@Base 4:4.9.3
 _ZN8Nepomuk25Query6ResultC1ERKS1_@Base 4:4.9.3
 _ZN8Nepomuk25Query6ResultC1Ev@Base 4:4.9.3
 _ZN8Nepomuk25Query6ResultC2ERKNS_8ResourceEd@Base 4:4.9.3
 _ZN8Nepomuk25Query6ResultC2ERKS1_@Base 4:4.9.3
 _ZN8Nepomuk25Query6ResultC2Ev@Base 4:4.9.3
 _ZN8Nepomuk25Query6ResultD1Ev@Base 4:4.9.3
 _ZN8Nepomuk25Query6ResultD2Ev@Base 4:4.9.3
 _ZN8Nepomuk25Query6ResultaSERKS1_@Base 4:4.9.3
 _ZN8Nepomuk25Query7AndTermC1ERK5QListINS0_4TermEE@Base 4:4.9.3
 _ZN8Nepomuk25Query7AndTermC1ERKNS0_4TermES4_S4_S4_S4_S4_@Base 4:4.9.3
 _ZN8Nepomuk25Query7AndTermC1ERKS1_@Base 4:4.9.3
 _ZN8Nepomuk25Query7AndTermC1Ev@Base 4:4.9.3
 _ZN8Nepomuk25Query7AndTermC2ERK5QListINS0_4TermEE@Base 4:4.9.3
 _ZN8Nepomuk25Query7AndTermC2ERKNS0_4TermES4_S4_S4_S4_S4_@Base 4:4.9.3
 _ZN8Nepomuk25Query7AndTermC2ERKS1_@Base 4:4.9.3
 _ZN8Nepomuk25Query7AndTermC2Ev@Base 4:4.9.3
 _ZN8Nepomuk25Query7AndTermD1Ev@Base 4:4.9.3
 _ZN8Nepomuk25Query7AndTermD2Ev@Base 4:4.9.3
 _ZN8Nepomuk25Query7AndTermaSERKS1_@Base 4:4.9.3
 _ZN8Nepomuk25Query9FileQuery11setFileModeE6QFlagsINS1_13FileModeFlagsEE@Base 4:4.9.3
 _ZN8Nepomuk25Query9FileQuery16addExcludeFolderERK4KUrl@Base 4:4.9.3
 _ZN8Nepomuk25Query9FileQuery16addIncludeFolderERK4KUrl@Base 4:4.9.3
 _ZN8Nepomuk25Query9FileQuery16addIncludeFolderERK4KUrlb@Base 4:4.9.3
 _ZN8Nepomuk25Query9FileQuery17setExcludeFoldersERKN4KUrl4ListE@Base 4:4.9.3
 _ZN8Nepomuk25Query9FileQuery17setIncludeFoldersERK5QHashI4KUrlbE@Base 4:4.9.3
 _ZN8Nepomuk25Query9FileQuery17setIncludeFoldersERKN4KUrl4ListE@Base 4:4.9.3
 _ZN8Nepomuk25Query9FileQueryC1ERKNS0_4TermE@Base 4:4.9.3
 _ZN8Nepomuk25Query9FileQueryC1ERKNS0_5QueryE@Base 4:4.9.3
 _ZN8Nepomuk25Query9FileQueryC1Ev@Base 4:4.9.3
 _ZN8Nepomuk25Query9FileQueryC2ERKNS0_4TermE@Base 4:4.9.3
 _ZN8Nepomuk25Query9FileQueryC2ERKNS0_5QueryE@Base 4:4.9.3
 _ZN8Nepomuk25Query9FileQueryC2Ev@Base 4:4.9.3
 _ZN8Nepomuk25Query9FileQueryD1Ev@Base 4:4.9.3
 _ZN8Nepomuk25Query9FileQueryD2Ev@Base 4:4.9.3
 _ZN8Nepomuk25Query9FileQueryaSERKNS0_5QueryE@Base 4:4.9.3
 _ZN8Nepomuk25Query9GroupTerm10addSubTermERKNS0_4TermE@Base 4:4.9.3
 _ZN8Nepomuk25Query9GroupTerm11setSubTermsERK5QListINS0_4TermEE@Base 4:4.9.3
 _ZN8Nepomuk25Query9GroupTermC1EPNS0_11TermPrivateE@Base 4:4.9.3
 _ZN8Nepomuk25Query9GroupTermC1EPNS0_11TermPrivateERKNS0_4TermES6_S6_S6_S6_S6_@Base 4:4.9.3
 _ZN8Nepomuk25Query9GroupTermC1ERKNS0_4TermE@Base 4:4.9.3
 _ZN8Nepomuk25Query9GroupTermC2EPNS0_11TermPrivateE@Base 4:4.9.3
 _ZN8Nepomuk25Query9GroupTermC2EPNS0_11TermPrivateERKNS0_4TermES6_S6_S6_S6_S6_@Base 4:4.9.3
 _ZN8Nepomuk25Query9GroupTermC2ERKNS0_4TermE@Base 4:4.9.3
 _ZN8Nepomuk25Query9GroupTermD1Ev@Base 4:4.9.3
 _ZN8Nepomuk25Query9GroupTermD2Ev@Base 4:4.9.3
 _ZN8Nepomuk25QueryaaERKNS0_4TermES3_@Base 4:4.9.3
 _ZN8Nepomuk25QueryaaERKNS0_5QueryERKNS0_4TermE@Base 4:4.9.3
 _ZN8Nepomuk25QueryeqERKNS_5Types8PropertyERKNS0_4TermE@Base 4:4.9.3
 _ZN8Nepomuk25QuerygeERKNS_5Types8PropertyERKNS0_4TermE@Base 4:4.9.3
 _ZN8Nepomuk25QuerygtERKNS_5Types8PropertyERKNS0_4TermE@Base 4:4.9.3
 _ZN8Nepomuk25QueryleERKNS_5Types8PropertyERKNS0_4TermE@Base 4:4.9.3
 _ZN8Nepomuk25QueryltERKNS_5Types8PropertyERKNS0_4TermE@Base 4:4.9.3
 _ZN8Nepomuk25QueryneERKNS_5Types8PropertyERKNS0_4TermE@Base 4:4.9.3
 _ZN8Nepomuk25QueryntERKNS0_4TermE@Base 4:4.9.3
 _ZN8Nepomuk25QueryntERKNS0_5QueryE@Base 4:4.9.3
 _ZN8Nepomuk25QueryooERKNS0_4TermES3_@Base 4:4.9.3
 _ZN8Nepomuk25QueryooERKNS0_5QueryERKNS0_4TermE@Base 4:4.9.3
 _ZN8Nepomuk25Types5Class10isParentOfERKS1_@Base 4:4.9.3
 _ZN8Nepomuk25Types5Class10subClassesEv@Base 4:4.9.3
 _ZN8Nepomuk25Types5Class12isSubClassOfERKS1_@Base 4:4.9.3
 _ZN8Nepomuk25Types5Class13allSubClassesEv@Base 4:4.9.3
 _ZN8Nepomuk25Types5Class13parentClassesEv@Base 4:4.9.3
 _ZN8Nepomuk25Types5Class16allParentClassesEv@Base 4:4.9.3
 _ZN8Nepomuk25Types5Class18findPropertyByNameERK7QString@Base 4:4.9.3
 _ZN8Nepomuk25Types5Class19findPropertyByLabelERK7QStringS4_@Base 4:4.9.3
 _ZN8Nepomuk25Types5Class7rangeOfEv@Base 4:4.9.3
 _ZN8Nepomuk25Types5Class8domainOfEv@Base 4:4.9.3
 _ZN8Nepomuk25Types5ClassC1ERK4QUrl@Base 4:4.9.3
 _ZN8Nepomuk25Types5ClassC1ERKS1_@Base 4:4.9.3
 _ZN8Nepomuk25Types5ClassC1Ev@Base 4:4.9.3
 _ZN8Nepomuk25Types5ClassC2ERK4QUrl@Base 4:4.9.3
 _ZN8Nepomuk25Types5ClassC2ERKS1_@Base 4:4.9.3
 _ZN8Nepomuk25Types5ClassC2Ev@Base 4:4.9.3
 _ZN8Nepomuk25Types5ClassD0Ev@Base 4:4.9.3
 _ZN8Nepomuk25Types5ClassD1Ev@Base 4:4.9.3
 _ZN8Nepomuk25Types5ClassD2Ev@Base 4:4.9.3
 _ZN8Nepomuk25Types5ClassaSERKS1_@Base 4:4.9.3
 _ZN8Nepomuk25Types6Entity11isAvailableEv@Base 4:4.9.3
 _ZN8Nepomuk25Types6Entity4iconEv@Base 4:4.9.3
 _ZN8Nepomuk25Types6Entity5labelERK7QString@Base 4:4.9.3
 _ZN8Nepomuk25Types6Entity5resetEb@Base 4:4.9.3
 _ZN8Nepomuk25Types6Entity7commentERK7QString@Base 4:4.9.3
 _ZN8Nepomuk25Types6EntityC1ERKS1_@Base 4:4.9.3
 _ZN8Nepomuk25Types6EntityC1Ev@Base 4:4.9.3
 _ZN8Nepomuk25Types6EntityC2ERKS1_@Base 4:4.9.3
 _ZN8Nepomuk25Types6EntityC2Ev@Base 4:4.9.3
 _ZN8Nepomuk25Types6EntityD0Ev@Base 4:4.9.3
 _ZN8Nepomuk25Types6EntityD1Ev@Base 4:4.9.3
 _ZN8Nepomuk25Types6EntityD2Ev@Base 4:4.9.3
 _ZN8Nepomuk25Types6EntityaSERKS1_@Base 4:4.9.3
 _ZN8Nepomuk25Types7LiteralC1ERK4QUrl@Base 4:4.9.3
 _ZN8Nepomuk25Types7LiteralC1ERKS1_@Base 4:4.9.3
 _ZN8Nepomuk25Types7LiteralC1Ev@Base 4:4.9.3
 _ZN8Nepomuk25Types7LiteralC2ERK4QUrl@Base 4:4.9.3
 _ZN8Nepomuk25Types7LiteralC2ERKS1_@Base 4:4.9.3
 _ZN8Nepomuk25Types7LiteralC2Ev@Base 4:4.9.3
 _ZN8Nepomuk25Types7LiteralD1Ev@Base 4:4.9.3
 _ZN8Nepomuk25Types7LiteralD2Ev@Base 4:4.9.3
 _ZN8Nepomuk25Types7LiteralaSERKS1_@Base 4:4.9.3
 _ZN8Nepomuk25Types8Ontology10allClassesEv@Base 4:4.9.3
 _ZN8Nepomuk25Types8Ontology13allPropertiesEv@Base 4:4.9.3
 _ZN8Nepomuk25Types8Ontology15findClassByNameERK7QString@Base 4:4.9.3
 _ZN8Nepomuk25Types8Ontology16findClassByLabelERK7QStringS4_@Base 4:4.9.3
 _ZN8Nepomuk25Types8Ontology18findPropertyByNameERK7QString@Base 4:4.9.3
 _ZN8Nepomuk25Types8Ontology19findPropertyByLabelERK7QStringS4_@Base 4:4.9.3
 _ZN8Nepomuk25Types8OntologyC1ERK4QUrl@Base 4:4.9.3
 _ZN8Nepomuk25Types8OntologyC1ERKS1_@Base 4:4.9.3
 _ZN8Nepomuk25Types8OntologyC1Ev@Base 4:4.9.3
 _ZN8Nepomuk25Types8OntologyC2ERK4QUrl@Base 4:4.9.3
 _ZN8Nepomuk25Types8OntologyC2ERKS1_@Base 4:4.9.3
 _ZN8Nepomuk25Types8OntologyC2Ev@Base 4:4.9.3
 _ZN8Nepomuk25Types8OntologyD0Ev@Base 4:4.9.3
 _ZN8Nepomuk25Types8OntologyD1Ev@Base 4:4.9.3
 _ZN8Nepomuk25Types8OntologyD2Ev@Base 4:4.9.3
 _ZN8Nepomuk25Types8OntologyaSERKS1_@Base 4:4.9.3
 _ZN8Nepomuk25Types8Property10isParentOfERKS1_@Base 4:4.9.3
 _ZN8Nepomuk25Types8Property11cardinalityEv@Base 4:4.9.3
 _ZN8Nepomuk25Types8Property13subPropertiesEv@Base 4:4.9.3
 _ZN8Nepomuk25Types8Property14maxCardinalityEv@Base 4:4.9.3
 _ZN8Nepomuk25Types8Property14minCardinalityEv@Base 4:4.9.3
 _ZN8Nepomuk25Types8Property15inversePropertyEv@Base 4:4.9.3
 _ZN8Nepomuk25Types8Property15isSubPropertyOfERKS1_@Base 4:4.9.3
 _ZN8Nepomuk25Types8Property16literalRangeTypeEv@Base 4:4.9.3
 _ZN8Nepomuk25Types8Property16parentPropertiesEv@Base 4:4.9.3
 _ZN8Nepomuk25Types8Property5rangeEv@Base 4:4.9.3
 _ZN8Nepomuk25Types8Property6domainEv@Base 4:4.9.3
 _ZN8Nepomuk25Types8PropertyC1ERK4QUrl@Base 4:4.9.3
 _ZN8Nepomuk25Types8PropertyC1ERKS1_@Base 4:4.9.3
 _ZN8Nepomuk25Types8PropertyC1Ev@Base 4:4.9.3
 _ZN8Nepomuk25Types8PropertyC2ERK4QUrl@Base 4:4.9.3
 _ZN8Nepomuk25Types8PropertyC2ERKS1_@Base 4:4.9.3
 _ZN8Nepomuk25Types8PropertyC2Ev@Base 4:4.9.3
 _ZN8Nepomuk25Types8PropertyD0Ev@Base 4:4.9.3
 _ZN8Nepomuk25Types8PropertyD1Ev@Base 4:4.9.3
 _ZN8Nepomuk25Types8PropertyD2Ev@Base 4:4.9.3
 _ZN8Nepomuk25Types8PropertyaSERKS1_@Base 4:4.9.3
 _ZN8Nepomuk25Utils15createCopyEventERK4KUrlS3_RK9QDateTimeS3_@Base 4:4.9.3
 _ZN8Nepomuk25Utils15finishCopyEventERNS_8ResourceERK9QDateTime@Base 4:4.9.3
 _ZN8Nepomuk25Utils19formatPropertyValueERKNS_5Types8PropertyERKNS_7VariantERK5QListINS_8ResourceEE6QFlagsINS0_18PropertyFormatFlagEE@Base 4:4.9.3
 _ZN8Nepomuk25qHashERKNS_14SimpleResourceE@Base 4:4.9.3
 _ZN8Nepomuk25qHashERKNS_8ResourceE@Base 4:4.9.3
 _ZN8Nepomuk27Service11qt_metacallEN11QMetaObject4CallEiPPv@Base 4:4.9.3
 _ZN8Nepomuk27Service11qt_metacastEPKc@Base 4:4.9.3
 _ZN8Nepomuk27Service16staticMetaObjectE@Base 4:4.9.3
 _ZN8Nepomuk27Service21setServiceInitializedEb@Base 4:4.9.3
 _ZN8Nepomuk27Service9mainModelEv@Base 4:4.9.3
 _ZN8Nepomuk27ServiceC1EP7QObjectb@Base 4:4.9.3
 _ZN8Nepomuk27ServiceC2EP7QObjectb@Base 4:4.9.3
 _ZN8Nepomuk27ServiceD0Ev@Base 4:4.9.3
 _ZN8Nepomuk27ServiceD1Ev@Base 4:4.9.3
 _ZN8Nepomuk27ServiceD2Ev@Base 4:4.9.3
 _ZN8Nepomuk27Variant10fromStringERK7QStringi@Base 4:4.9.3
 _ZN8Nepomuk27Variant12fromNodeListERK5QListIN7Soprano4NodeEE@Base 4:4.9.3
 _ZN8Nepomuk27Variant6appendERK4QUrl@Base 4:4.9.3
 _ZN8Nepomuk27Variant6appendERK5QDate@Base 4:4.9.3
 _ZN8Nepomuk27Variant6appendERK5QTime@Base 4:4.9.3
 _ZN8Nepomuk27Variant6appendERK7QString@Base 4:4.9.3
 _ZN8Nepomuk27Variant6appendERK9QDateTime@Base 4:4.9.3
 _ZN8Nepomuk27Variant6appendERKNS_8ResourceE@Base 4:4.9.3
 _ZN8Nepomuk27Variant6appendERKS0_@Base 4:4.9.3
 _ZN8Nepomuk27Variant6appendEb@Base 4:4.9.3
 _ZN8Nepomuk27Variant6appendEd@Base 4:4.9.3
 _ZN8Nepomuk27Variant6appendEi@Base 4:4.9.3
 _ZN8Nepomuk27Variant6appendEj@Base 4:4.9.3
 _ZN8Nepomuk27Variant6appendEx@Base 4:4.9.3
 _ZN8Nepomuk27Variant6appendEy@Base 4:4.9.3
 _ZN8Nepomuk27Variant8fromNodeERKN7Soprano4NodeE@Base 4:4.9.3
 _ZN8Nepomuk27VariantC1EPKc@Base 4:4.9.3
 _ZN8Nepomuk27VariantC1ERK11QStringList@Base 4:4.9.3
 _ZN8Nepomuk27VariantC1ERK4QUrl@Base 4:4.9.3
 _ZN8Nepomuk27VariantC1ERK5QDate@Base 4:4.9.3
 _ZN8Nepomuk27VariantC1ERK5QListI4QUrlE@Base 4:4.9.3
 _ZN8Nepomuk27VariantC1ERK5QListI5QDateE@Base 4:4.9.3
 _ZN8Nepomuk27VariantC1ERK5QListI5QTimeE@Base 4:4.9.3
 _ZN8Nepomuk27VariantC1ERK5QListI9QDateTimeE@Base 4:4.9.3
 _ZN8Nepomuk27VariantC1ERK5QListINS_8ResourceEE@Base 4:4.9.3
 _ZN8Nepomuk27VariantC1ERK5QListIS0_E@Base 4:4.9.3
 _ZN8Nepomuk27VariantC1ERK5QListIbE@Base 4:4.9.3
 _ZN8Nepomuk27VariantC1ERK5QListIdE@Base 4:4.9.3
 _ZN8Nepomuk27VariantC1ERK5QListIiE@Base 4:4.9.3
 _ZN8Nepomuk27VariantC1ERK5QListIjE@Base 4:4.9.3
 _ZN8Nepomuk27VariantC1ERK5QListIxE@Base 4:4.9.3
 _ZN8Nepomuk27VariantC1ERK5QListIyE@Base 4:4.9.3
 _ZN8Nepomuk27VariantC1ERK5QTime@Base 4:4.9.3
 _ZN8Nepomuk27VariantC1ERK7QString@Base 4:4.9.3
 _ZN8Nepomuk27VariantC1ERK8QVariant@Base 4:4.9.3
 _ZN8Nepomuk27VariantC1ERK9QDateTime@Base 4:4.9.3
 _ZN8Nepomuk27VariantC1ERKNS_8ResourceE@Base 4:4.9.3
 _ZN8Nepomuk27VariantC1ERKS0_@Base 4:4.9.3
 _ZN8Nepomuk27VariantC1Eb@Base 4:4.9.3
 _ZN8Nepomuk27VariantC1Ed@Base 4:4.9.3
 _ZN8Nepomuk27VariantC1Ei@Base 4:4.9.3
 _ZN8Nepomuk27VariantC1Ej@Base 4:4.9.3
 _ZN8Nepomuk27VariantC1Ev@Base 4:4.9.3
 _ZN8Nepomuk27VariantC1Ex@Base 4:4.9.3
 _ZN8Nepomuk27VariantC1Ey@Base 4:4.9.3
 _ZN8Nepomuk27VariantC2EPKc@Base 4:4.9.3
 _ZN8Nepomuk27VariantC2ERK11QStringList@Base 4:4.9.3
 _ZN8Nepomuk27VariantC2ERK4QUrl@Base 4:4.9.3
 _ZN8Nepomuk27VariantC2ERK5QDate@Base 4:4.9.3
 _ZN8Nepomuk27VariantC2ERK5QListI4QUrlE@Base 4:4.9.3
 _ZN8Nepomuk27VariantC2ERK5QListI5QDateE@Base 4:4.9.3
 _ZN8Nepomuk27VariantC2ERK5QListI5QTimeE@Base 4:4.9.3
 _ZN8Nepomuk27VariantC2ERK5QListI9QDateTimeE@Base 4:4.9.3
 _ZN8Nepomuk27VariantC2ERK5QListINS_8ResourceEE@Base 4:4.9.3
 _ZN8Nepomuk27VariantC2ERK5QListIS0_E@Base 4:4.9.3
 _ZN8Nepomuk27VariantC2ERK5QListIbE@Base 4:4.9.3
 _ZN8Nepomuk27VariantC2ERK5QListIdE@Base 4:4.9.3
 _ZN8Nepomuk27VariantC2ERK5QListIiE@Base 4:4.9.3
 _ZN8Nepomuk27VariantC2ERK5QListIjE@Base 4:4.9.3
 _ZN8Nepomuk27VariantC2ERK5QListIxE@Base 4:4.9.3
 _ZN8Nepomuk27VariantC2ERK5QListIyE@Base 4:4.9.3
 _ZN8Nepomuk27VariantC2ERK5QTime@Base 4:4.9.3
 _ZN8Nepomuk27VariantC2ERK7QString@Base 4:4.9.3
 _ZN8Nepomuk27VariantC2ERK8QVariant@Base 4:4.9.3
 _ZN8Nepomuk27VariantC2ERK9QDateTime@Base 4:4.9.3
 _ZN8Nepomuk27VariantC2ERKNS_8ResourceE@Base 4:4.9.3
 _ZN8Nepomuk27VariantC2ERKS0_@Base 4:4.9.3
 _ZN8Nepomuk27VariantC2Eb@Base 4:4.9.3
 _ZN8Nepomuk27VariantC2Ed@Base 4:4.9.3
 _ZN8Nepomuk27VariantC2Ei@Base 4:4.9.3
 _ZN8Nepomuk27VariantC2Ej@Base 4:4.9.3
 _ZN8Nepomuk27VariantC2Ev@Base 4:4.9.3
 _ZN8Nepomuk27VariantC2Ex@Base 4:4.9.3
 _ZN8Nepomuk27VariantC2Ey@Base 4:4.9.3
 _ZN8Nepomuk27VariantD1Ev@Base 4:4.9.3
 _ZN8Nepomuk27VariantD2Ev@Base 4:4.9.3
 _ZN8Nepomuk27VariantaSERK11QStringList@Base 4:4.9.3
 _ZN8Nepomuk27VariantaSERK4QUrl@Base 4:4.9.3
 _ZN8Nepomuk27VariantaSERK5QDate@Base 4:4.9.3
 _ZN8Nepomuk27VariantaSERK5QListI4QUrlE@Base 4:4.9.3
 _ZN8Nepomuk27VariantaSERK5QListI5QDateE@Base 4:4.9.3
 _ZN8Nepomuk27VariantaSERK5QListI5QTimeE@Base 4:4.9.3
 _ZN8Nepomuk27VariantaSERK5QListI9QDateTimeE@Base 4:4.9.3
 _ZN8Nepomuk27VariantaSERK5QListINS_8ResourceEE@Base 4:4.9.3
 _ZN8Nepomuk27VariantaSERK5QListIbE@Base 4:4.9.3
 _ZN8Nepomuk27VariantaSERK5QListIdE@Base 4:4.9.3
 _ZN8Nepomuk27VariantaSERK5QListIiE@Base 4:4.9.3
 _ZN8Nepomuk27VariantaSERK5QListIjE@Base 4:4.9.3
 _ZN8Nepomuk27VariantaSERK5QListIxE@Base 4:4.9.3
 _ZN8Nepomuk27VariantaSERK5QListIyE@Base 4:4.9.3
 _ZN8Nepomuk27VariantaSERK5QTime@Base 4:4.9.3
 _ZN8Nepomuk27VariantaSERK7QString@Base 4:4.9.3
 _ZN8Nepomuk27VariantaSERK9QDateTime@Base 4:4.9.3
 _ZN8Nepomuk27VariantaSERKNS_8ResourceE@Base 4:4.9.3
 _ZN8Nepomuk27VariantaSERKS0_@Base 4:4.9.3
 _ZN8Nepomuk27VariantaSEb@Base 4:4.9.3
 _ZN8Nepomuk27VariantaSEd@Base 4:4.9.3
 _ZN8Nepomuk27VariantaSEi@Base 4:4.9.3
 _ZN8Nepomuk27VariantaSEj@Base 4:4.9.3
 _ZN8Nepomuk27VariantaSEx@Base 4:4.9.3
 _ZN8Nepomuk27VariantaSEy@Base 4:4.9.3
 _ZN8Nepomuk28Resource10setSymbolsERK11QStringList@Base 4:4.10.0
 _ZN8Nepomuk28Resource11addPropertyERK4QUrlRKNS_7VariantE@Base 4:4.9.3
 _ZN8Nepomuk28Resource11setPropertyERK4QUrlRKNS_7VariantE@Base 4:4.9.3
 _ZN8Nepomuk28Resource12addIsRelatedERKS0_@Base 4:4.9.3
 _ZN8Nepomuk28Resource13addIdentifierERK7QString@Base 4:4.9.3
 _ZN8Nepomuk28Resource13setIsRelatedsERK5QListIS0_E@Base 4:4.9.3
 _ZN8Nepomuk28Resource14removePropertyERK4QUrl@Base 4:4.9.3
 _ZN8Nepomuk28Resource14removePropertyERK4QUrlRKNS_7VariantE@Base 4:4.9.3
 _ZN8Nepomuk28Resource14setDescriptionERK7QString@Base 4:4.9.3
 _ZN8Nepomuk28Resource14setIdentifiersERK11QStringList@Base 4:4.9.3
 _ZN8Nepomuk28Resource15fromResourceUriERK4KUrlRKNS_5Types5ClassE@Base 4:4.9.3
 _ZN8Nepomuk28Resource18increaseUsageCountEv@Base 4:4.9.3
 _ZN8Nepomuk28Resource6addTagERKNS_3TagE@Base 4:4.9.3
 _ZN8Nepomuk28Resource6removeEv@Base 4:4.9.3
 _ZN8Nepomuk28Resource7addTypeERK4QUrl@Base 4:4.9.3
 _ZN8Nepomuk28Resource7setTagsERK5QListINS_3TagEE@Base 4:4.9.3
 _ZN8Nepomuk28Resource8setLabelERK7QString@Base 4:4.9.3
 _ZN8Nepomuk28Resource8setTypesERK5QListI4QUrlE@Base 4:4.9.3
 _ZN8Nepomuk28Resource9addSymbolERK7QString@Base 4:4.10.0
 _ZN8Nepomuk28Resource9setRatingERKj@Base 4:4.9.3
 _ZN8Nepomuk28ResourceC1EPNS_12ResourceDataE@Base 4:4.9.3
 _ZN8Nepomuk28ResourceC1ERK4QUrlS3_@Base 4:4.9.3
 _ZN8Nepomuk28ResourceC1ERK7QStringRK4QUrl@Base 4:4.9.3
 _ZN8Nepomuk28ResourceC1ERKS0_@Base 4:4.9.3
 _ZN8Nepomuk28ResourceC1Ev@Base 4:4.9.3
 _ZN8Nepomuk28ResourceC2EPNS_12ResourceDataE@Base 4:4.9.3
 _ZN8Nepomuk28ResourceC2ERK4QUrlS3_@Base 4:4.9.3
 _ZN8Nepomuk28ResourceC2ERK7QStringRK4QUrl@Base 4:4.9.3
 _ZN8Nepomuk28ResourceC2ERKS0_@Base 4:4.9.3
 _ZN8Nepomuk28ResourceC2Ev@Base 4:4.9.3
 _ZN8Nepomuk28ResourceD0Ev@Base 4:4.9.3
 _ZN8Nepomuk28ResourceD1Ev@Base 4:4.9.3
 _ZN8Nepomuk28ResourceD2Ev@Base 4:4.9.3
 _ZN8Nepomuk28ResourceaSERK4QUrl@Base 4:4.9.3
 _ZN8Nepomuk28ResourceaSERKS0_@Base 4:4.9.3
 _ZN8Nepomuk2lsE6QDebugRKNS_14SimpleResourceE@Base 4:4.9.3
 _ZN8Nepomuk2lsE6QDebugRKNS_19SimpleResourceGraphE@Base 4:4.9.3
 _ZN8Nepomuk2lsER11QDataStreamRKNS_14SimpleResourceE@Base 4:4.9.3
 _ZN8Nepomuk2lsER11QDataStreamRKNS_19SimpleResourceGraphE@Base 4:4.9.3
 _ZN8Nepomuk2rsER11QDataStreamRNS_14SimpleResourceE@Base 4:4.9.3
 _ZN8Nepomuk2rsER11QDataStreamRNS_19SimpleResourceGraphE@Base 4:4.9.3
 _ZNK8Nepomuk214SimpleResource10propertiesEv@Base 4:4.9.3
 _ZNK8Nepomuk214SimpleResource12containsNodeERK4QUrlRKN7Soprano4NodeE@Base 4:4.9.3
 _ZNK8Nepomuk214SimpleResource15toStatementListEv@Base 4:4.9.3
 _ZNK8Nepomuk214SimpleResource3uriEv@Base 4:4.9.3
 _ZNK8Nepomuk214SimpleResource7isValidEv@Base 4:4.9.3
 _ZNK8Nepomuk214SimpleResource8containsERK4QUrl@Base 4:4.9.3
 _ZNK8Nepomuk214SimpleResource8containsERK4QUrlRK8QVariant@Base 4:4.9.3
 _ZNK8Nepomuk214SimpleResource8propertyERK4QUrl@Base 4:4.9.3
 _ZNK8Nepomuk214SimpleResourceeqERKS0_@Base 4:4.9.3
 _ZNK8Nepomuk215ResourceManager10metaObjectEv@Base 4:4.9.3
 _ZNK8Nepomuk215ResourceManager11initializedEv@Base 4:4.9.3
 _ZNK8Nepomuk215ResourceWatcher10metaObjectEv@Base 4:4.9.3
 _ZNK8Nepomuk215ResourceWatcher10propertiesEv@Base 4:4.9.3
 _ZNK8Nepomuk215ResourceWatcher13propertyCountEv@Base 4:4.9.3
 _ZNK8Nepomuk215ResourceWatcher13resourceCountEv@Base 4:4.9.3
 _ZNK8Nepomuk215ResourceWatcher5typesEv@Base 4:4.9.3
 _ZNK8Nepomuk215ResourceWatcher9resourcesEv@Base 4:4.9.3
 _ZNK8Nepomuk215ResourceWatcher9typeCountEv@Base 4:4.9.3
 _ZNK8Nepomuk217CreateResourceJob10metaObjectEv@Base 4:4.9.3
 _ZNK8Nepomuk217CreateResourceJob11resourceUriEv@Base 4:4.9.3
 _ZNK8Nepomuk217StoreResourcesJob10metaObjectEv@Base 4:4.9.3
 _ZNK8Nepomuk217StoreResourcesJob8mappingsEv@Base 4:4.9.3
 _ZNK8Nepomuk219SimpleResourceGraph11containsAnyERK4QUrlS3_@Base 4:4.9.3
 _ZNK8Nepomuk219SimpleResourceGraph15allResourceUrisEv@Base 4:4.9.3
 _ZNK8Nepomuk219SimpleResourceGraph16toStatementGraphEv@Base 4:4.9.3
 _ZNK8Nepomuk219SimpleResourceGraph4saveERK14KComponentData@Base 4:4.9.3
 _ZNK8Nepomuk219SimpleResourceGraph5countEv@Base 4:4.9.3
 _ZNK8Nepomuk219SimpleResourceGraph5toSetEv@Base 4:4.9.3
 _ZNK8Nepomuk219SimpleResourceGraph6toListEv@Base 4:4.9.3
 _ZNK8Nepomuk219SimpleResourceGraph7isEmptyEv@Base 4:4.9.3
 _ZNK8Nepomuk219SimpleResourceGraph8containsERK4QUrl@Base 4:4.9.3
 _ZNK8Nepomuk219SimpleResourceGraph8containsERKNS_14SimpleResourceE@Base 4:4.9.3
 _ZNK8Nepomuk219SimpleResourceGrapheqERKS0_@Base 4:4.9.3
 _ZNK8Nepomuk219SimpleResourceGraphixERK4QUrl@Base 4:4.9.3
 _ZNK8Nepomuk219SimpleResourceGraphneERKS0_@Base 4:4.9.3
 _ZNK8Nepomuk220DescribeResourcesJob10metaObjectEv@Base 4:4.9.3
 _ZNK8Nepomuk220DescribeResourcesJob9resourcesEv@Base 4:4.9.3
 _ZNK8Nepomuk23Tag5tagOfEv@Base 4:4.9.3
 _ZNK8Nepomuk24File11dirResourceEv@Base 4:4.9.3
 _ZNK8Nepomuk24File3urlEv@Base 4:4.9.3
 _ZNK8Nepomuk25Query10SimpleTerm7subTermEv@Base 4:4.9.3
 _ZNK8Nepomuk25Query11LiteralTerm5valueEv@Base 4:4.9.3
 _ZNK8Nepomuk25Query11QueryParser13matchPropertyERK7QString@Base 4:4.9.3
 _ZNK8Nepomuk25Query11QueryParser5parseERK7QString6QFlagsINS1_10ParserFlagEE@Base 4:4.9.3
 _ZNK8Nepomuk25Query11QueryParser5parseERK7QString@Base 4:4.9.3
 _ZNK8Nepomuk25Query12ResourceTerm8resourceEv@Base 4:4.9.3
 _ZNK8Nepomuk25Query14ComparisonTerm10comparatorEv@Base 4:4.9.3
 _ZNK8Nepomuk25Query14ComparisonTerm10isInvertedEv@Base 4:4.9.3
 _ZNK8Nepomuk25Query14ComparisonTerm10sortWeightEv@Base 4:4.9.3
 _ZNK8Nepomuk25Query14ComparisonTerm12variableNameEv@Base 4:4.9.3
 _ZNK8Nepomuk25Query14ComparisonTerm17aggregateFunctionEv@Base 4:4.9.3
 _ZNK8Nepomuk25Query14ComparisonTerm8invertedEv@Base 4:4.9.3
 _ZNK8Nepomuk25Query14ComparisonTerm8propertyEv@Base 4:4.9.3
 _ZNK8Nepomuk25Query14ComparisonTerm9sortOrderEv@Base 4:4.9.3
 _ZNK8Nepomuk25Query14ResultIterator6resultEv@Base 4:4.10.0
 _ZNK8Nepomuk25Query14ResultIterator7currentEv@Base 4:4.10.0
 _ZNK8Nepomuk25Query14ResultIterator7isValidEv@Base 4:4.10.0
 _ZNK8Nepomuk25Query14ResultIteratordeEv@Base 4:4.10.0
 _ZNK8Nepomuk25Query16ResourceTypeTerm4typeEv@Base 4:4.9.3
 _ZNK8Nepomuk25Query18QueryServiceClient10metaObjectEv@Base 4:4.9.3
 _ZNK8Nepomuk25Query18QueryServiceClient12errorMessageEv@Base 4:4.9.3
 _ZNK8Nepomuk25Query18QueryServiceClient17isListingFinishedEv@Base 4:4.9.3
 _ZNK8Nepomuk25Query4Term13isLiteralTermEv@Base 4:4.9.3
 _ZNK8Nepomuk25Query4Term13toLiteralTermEv@Base 4:4.9.3
 _ZNK8Nepomuk25Query4Term14isNegationTermEv@Base 4:4.9.3
 _ZNK8Nepomuk25Query4Term14isOptionalTermEv@Base 4:4.9.3
 _ZNK8Nepomuk25Query4Term14isResourceTermEv@Base 4:4.9.3
 _ZNK8Nepomuk25Query4Term14toNegationTermEv@Base 4:4.9.3
 _ZNK8Nepomuk25Query4Term14toOptionalTermEv@Base 4:4.9.3
 _ZNK8Nepomuk25Query4Term14toResourceTermEv@Base 4:4.9.3
 _ZNK8Nepomuk25Query4Term16isComparisonTermEv@Base 4:4.9.3
 _ZNK8Nepomuk25Query4Term16toComparisonTermEv@Base 4:4.9.3
 _ZNK8Nepomuk25Query4Term18isResourceTypeTermEv@Base 4:4.9.3
 _ZNK8Nepomuk25Query4Term18toResourceTypeTermEv@Base 4:4.9.3
 _ZNK8Nepomuk25Query4Term4typeEv@Base 4:4.9.3
 _ZNK8Nepomuk25Query4Term7isValidEv@Base 4:4.9.3
 _ZNK8Nepomuk25Query4Term8isOrTermEv@Base 4:4.9.3
 _ZNK8Nepomuk25Query4Term8toOrTermEv@Base 4:4.9.3
 _ZNK8Nepomuk25Query4Term8toStringEv@Base 4:4.9.3
 _ZNK8Nepomuk25Query4Term9isAndTermEv@Base 4:4.9.3
 _ZNK8Nepomuk25Query4Term9optimizedEv@Base 4:4.9.3
 _ZNK8Nepomuk25Query4Term9toAndTermEv@Base 4:4.9.3
 _ZNK8Nepomuk25Query4TermeqERKS1_@Base 4:4.9.3
 _ZNK8Nepomuk25Query4TermlsE6QDebug@Base 4:4.9.3
 _ZNK8Nepomuk25Query4TermneERKS1_@Base 4:4.9.3
 _ZNK8Nepomuk25Query5Query10queryFlagsEv@Base 4:4.9.3
 _ZNK8Nepomuk25Query5Query11isFileQueryEv@Base 4:4.9.3
 _ZNK8Nepomuk25Query5Query11toFileQueryEv@Base 4:4.9.3
 _ZNK8Nepomuk25Query5Query11toSearchUrlE6QFlagsINS1_10SparqlFlagEE@Base 4:4.9.3
 _ZNK8Nepomuk25Query5Query11toSearchUrlERK7QString6QFlagsINS1_10SparqlFlagEE@Base 4:4.9.3
 _ZNK8Nepomuk25Query5Query13toSparqlQueryE6QFlagsINS1_10SparqlFlagEE@Base 4:4.9.3
 _ZNK8Nepomuk25Query5Query15RequestProperty8optionalEv@Base 4:4.9.3
 _ZNK8Nepomuk25Query5Query15RequestProperty8propertyEv@Base 4:4.9.3
 _ZNK8Nepomuk25Query5Query15RequestPropertyeqERKS2_@Base 4:4.9.3
 _ZNK8Nepomuk25Query5Query17requestPropertiesEv@Base 4:4.9.3
 _ZNK8Nepomuk25Query5Query18requestPropertyMapEv@Base 4:4.9.3
 _ZNK8Nepomuk25Query5Query22fullTextScoringEnabledEv@Base 4:4.9.3
 _ZNK8Nepomuk25Query5Query24fullTextScoringSortOrderEv@Base 4:4.9.3
 _ZNK8Nepomuk25Query5Query4termEv@Base 4:4.9.3
 _ZNK8Nepomuk25Query5Query5limitEv@Base 4:4.9.3
 _ZNK8Nepomuk25Query5Query6offsetEv@Base 4:4.9.3
 _ZNK8Nepomuk25Query5Query7isValidEv@Base 4:4.9.3
 _ZNK8Nepomuk25Query5Query8toStringEv@Base 4:4.9.3
 _ZNK8Nepomuk25Query5Query9optimizedEv@Base 4:4.9.3
 _ZNK8Nepomuk25Query5QueryeqERKS1_@Base 4:4.9.3
 _ZNK8Nepomuk25Query5QueryneERKS1_@Base 4:4.9.3
 _ZNK8Nepomuk25Query6Result15requestPropertyERKNS_5Types8PropertyE@Base 4:4.9.3
 _ZNK8Nepomuk25Query6Result17additionalBindingERK7QString@Base 4:4.9.3
 _ZNK8Nepomuk25Query6Result17requestPropertiesEv@Base 4:4.9.3
 _ZNK8Nepomuk25Query6Result18additionalBindingsEv@Base 4:4.9.3
 _ZNK8Nepomuk25Query6Result5scoreEv@Base 4:4.9.3
 _ZNK8Nepomuk25Query6Result7excerptEv@Base 4:4.9.3
 _ZNK8Nepomuk25Query6Result8resourceEv@Base 4:4.9.3
 _ZNK8Nepomuk25Query6ResulteqERKS1_@Base 4:4.9.3
 _ZNK8Nepomuk25Query6ResultixERKNS_5Types8PropertyE@Base 4:4.9.3
 _ZNK8Nepomuk25Query9FileQuery14excludeFoldersEv@Base 4:4.9.3
 _ZNK8Nepomuk25Query9FileQuery14includeFoldersEv@Base 4:4.9.3
 _ZNK8Nepomuk25Query9FileQuery17allIncludeFoldersEv@Base 4:4.9.3
 _ZNK8Nepomuk25Query9FileQuery8fileModeEv@Base 4:4.9.3
 _ZNK8Nepomuk25Query9GroupTerm8subTermsEv@Base 4:4.9.3
 _ZNK8Nepomuk25Types5Class10isParentOfERKS1_@Base 4:4.9.3
 _ZNK8Nepomuk25Types5Class10subClassesEv@Base 4:4.9.3
 _ZNK8Nepomuk25Types5Class12isSubClassOfERKS1_@Base 4:4.9.3
 _ZNK8Nepomuk25Types5Class13allSubClassesEv@Base 4:4.9.3
 _ZNK8Nepomuk25Types5Class13parentClassesEv@Base 4:4.9.3
 _ZNK8Nepomuk25Types5Class16allParentClassesEv@Base 4:4.9.3
 _ZNK8Nepomuk25Types5Class18findPropertyByNameERK7QString@Base 4:4.9.3
 _ZNK8Nepomuk25Types5Class19findPropertyByLabelERK7QStringS4_@Base 4:4.9.3
 _ZNK8Nepomuk25Types5Class7rangeOfEv@Base 4:4.9.3
 _ZNK8Nepomuk25Types5Class8domainOfEv@Base 4:4.9.3
 _ZNK8Nepomuk25Types6Entity11isAvailableEv@Base 4:4.9.3
 _ZNK8Nepomuk25Types6Entity11userVisibleEv@Base 4:4.9.3
 _ZNK8Nepomuk25Types6Entity3uriEv@Base 4:4.9.3
 _ZNK8Nepomuk25Types6Entity4iconEv@Base 4:4.9.3
 _ZNK8Nepomuk25Types6Entity4nameEv@Base 4:4.9.3
 _ZNK8Nepomuk25Types6Entity5labelERK7QString@Base 4:4.9.3
 _ZNK8Nepomuk25Types6Entity7commentERK7QString@Base 4:4.9.3
 _ZNK8Nepomuk25Types6Entity7isValidEv@Base 4:4.9.3
 _ZNK8Nepomuk25Types6EntityeqERK4QUrl@Base 4:4.9.3
 _ZNK8Nepomuk25Types6EntityeqERKS1_@Base 4:4.9.3
 _ZNK8Nepomuk25Types6EntityneERK4QUrl@Base 4:4.9.3
 _ZNK8Nepomuk25Types6EntityneERKS1_@Base 4:4.9.3
 _ZNK8Nepomuk25Types7Literal11dataTypeUriEv@Base 4:4.9.3
 _ZNK8Nepomuk25Types7Literal7isValidEv@Base 4:4.9.3
 _ZNK8Nepomuk25Types7Literal8dataTypeEv@Base 4:4.9.3
 _ZNK8Nepomuk25Types8Property10isParentOfERKS1_@Base 4:4.9.3
 _ZNK8Nepomuk25Types8Property11cardinalityEv@Base 4:4.9.3
 _ZNK8Nepomuk25Types8Property13subPropertiesEv@Base 4:4.9.3
 _ZNK8Nepomuk25Types8Property14maxCardinalityEv@Base 4:4.9.3
 _ZNK8Nepomuk25Types8Property14minCardinalityEv@Base 4:4.9.3
 _ZNK8Nepomuk25Types8Property15inversePropertyEv@Base 4:4.9.3
 _ZNK8Nepomuk25Types8Property15isSubPropertyOfERKS1_@Base 4:4.9.3
 _ZNK8Nepomuk25Types8Property16literalRangeTypeEv@Base 4:4.9.3
 _ZNK8Nepomuk25Types8Property16parentPropertiesEv@Base 4:4.9.3
 _ZNK8Nepomuk25Types8Property5rangeEv@Base 4:4.9.3
 _ZNK8Nepomuk25Types8Property6domainEv@Base 4:4.9.3
 _ZNK8Nepomuk27Service10metaObjectEv@Base 4:4.9.3
 _ZNK8Nepomuk27Variant10isBoolListEv@Base 4:4.9.3
 _ZNK8Nepomuk27Variant10isDateListEv@Base 4:4.9.3
 _ZNK8Nepomuk27Variant10isDateTimeEv@Base 4:4.9.3
 _ZNK8Nepomuk27Variant10isResourceEv@Base 4:4.9.3
 _ZNK8Nepomuk27Variant10isTimeListEv@Base 4:4.9.3
 _ZNK8Nepomuk27Variant10simpleTypeEv@Base 4:4.9.3
 _ZNK8Nepomuk27Variant10toBoolListEv@Base 4:4.9.3
 _ZNK8Nepomuk27Variant10toDateListEv@Base 4:4.9.3
 _ZNK8Nepomuk27Variant10toDateTimeEv@Base 4:4.9.3
 _ZNK8Nepomuk27Variant10toNodeListEv@Base 4:4.9.3
 _ZNK8Nepomuk27Variant10toResourceEv@Base 4:4.9.3
 _ZNK8Nepomuk27Variant10toTimeListEv@Base 4:4.9.3
 _ZNK8Nepomuk27Variant11isInt64ListEv@Base 4:4.9.3
 _ZNK8Nepomuk27Variant11toInt64ListEv@Base 4:4.9.3
 _ZNK8Nepomuk27Variant12isDoubleListEv@Base 4:4.9.3
 _ZNK8Nepomuk27Variant12isStringListEv@Base 4:4.9.3
 _ZNK8Nepomuk27Variant12toDoubleListEv@Base 4:4.9.3
 _ZNK8Nepomuk27Variant12toStringListEv@Base 4:4.9.3
 _ZNK8Nepomuk27Variant13isUnsignedIntEv@Base 4:4.9.3
 _ZNK8Nepomuk27Variant13toUnsignedIntEv@Base 4:4.9.3
 _ZNK8Nepomuk27Variant13toVariantListEv@Base 4:4.9.3
 _ZNK8Nepomuk27Variant14isDateTimeListEv@Base 4:4.9.3
 _ZNK8Nepomuk27Variant14isResourceListEv@Base 4:4.9.3
 _ZNK8Nepomuk27Variant14toDateTimeListEv@Base 4:4.9.3
 _ZNK8Nepomuk27Variant14toResourceListEv@Base 4:4.9.3
 _ZNK8Nepomuk27Variant15isUnsignedInt64Ev@Base 4:4.9.3
 _ZNK8Nepomuk27Variant15toUnsignedInt64Ev@Base 4:4.9.3
 _ZNK8Nepomuk27Variant17isUnsignedIntListEv@Base 4:4.9.3
 _ZNK8Nepomuk27Variant17toUnsignedIntListEv@Base 4:4.9.3
 _ZNK8Nepomuk27Variant19isUnsignedInt64ListEv@Base 4:4.9.3
 _ZNK8Nepomuk27Variant19toUnsignedInt64ListEv@Base 4:4.9.3
 _ZNK8Nepomuk27Variant4typeEv@Base 4:4.9.3
 _ZNK8Nepomuk27Variant5isIntEv@Base 4:4.9.3
 _ZNK8Nepomuk27Variant5isUrlEv@Base 4:4.9.3
 _ZNK8Nepomuk27Variant5toIntEv@Base 4:4.9.3
 _ZNK8Nepomuk27Variant5toUrlEv@Base 4:4.9.3
 _ZNK8Nepomuk27Variant6isBoolEv@Base 4:4.9.3
 _ZNK8Nepomuk27Variant6isDateEv@Base 4:4.9.3
 _ZNK8Nepomuk27Variant6isListEv@Base 4:4.9.3
 _ZNK8Nepomuk27Variant6isTimeEv@Base 4:4.9.3
 _ZNK8Nepomuk27Variant6toBoolEv@Base 4:4.9.3
 _ZNK8Nepomuk27Variant6toDateEv@Base 4:4.9.3
 _ZNK8Nepomuk27Variant6toNodeEv@Base 4:4.9.3
 _ZNK8Nepomuk27Variant6toTimeEv@Base 4:4.9.3
 _ZNK8Nepomuk27Variant7isInt64Ev@Base 4:4.9.3
 _ZNK8Nepomuk27Variant7isValidEv@Base 4:4.9.3
 _ZNK8Nepomuk27Variant7toInt64Ev@Base 4:4.9.3
 _ZNK8Nepomuk27Variant7variantEv@Base 4:4.9.3
 _ZNK8Nepomuk27Variant8isDoubleEv@Base 4:4.9.3
 _ZNK8Nepomuk27Variant8isStringEv@Base 4:4.9.3
 _ZNK8Nepomuk27Variant8toDoubleEv@Base 4:4.9.3
 _ZNK8Nepomuk27Variant8toStringEv@Base 4:4.9.3
 _ZNK8Nepomuk27Variant9isIntListEv@Base 4:4.9.3
 _ZNK8Nepomuk27Variant9isUrlListEv@Base 4:4.9.3
 _ZNK8Nepomuk27Variant9toIntListEv@Base 4:4.9.3
 _ZNK8Nepomuk27Variant9toUrlListEv@Base 4:4.9.3
 _ZNK8Nepomuk27VarianteqERKS0_@Base 4:4.9.3
 _ZNK8Nepomuk27VariantneERKS0_@Base 4:4.9.3
 _ZNK8Nepomuk28Resource10isRelatedsEv@Base 4:4.9.3
 _ZNK8Nepomuk28Resource10propertiesEv@Base 4:4.9.3
 _ZNK8Nepomuk28Resource10usageCountEv@Base 4:4.9.3
 _ZNK8Nepomuk28Resource11descriptionEv@Base 4:4.9.3
 _ZNK8Nepomuk28Resource11genericIconEv@Base 4:4.9.3
 _ZNK8Nepomuk28Resource11hasPropertyERK4QUrl@Base 4:4.9.3
 _ZNK8Nepomuk28Resource11hasPropertyERKNS_5Types8PropertyERKNS_7VariantE@Base 4:4.9.3
 _ZNK8Nepomuk28Resource11identifiersEv@Base 4:4.9.3
 _ZNK8Nepomuk28Resource11isRelatedOfEv@Base 4:4.9.3
 _ZNK8Nepomuk28Resource12genericLabelEv@Base 4:4.9.3
 _ZNK8Nepomuk28Resource18genericDescriptionEv@Base 4:4.9.3
 _ZNK8Nepomuk28Resource26determineFinalResourceDataEv@Base 4:4.9.3
 _ZNK8Nepomuk28Resource3uriEv@Base 4:4.9.3
 _ZNK8Nepomuk28Resource4tagsEv@Base 4:4.9.3
 _ZNK8Nepomuk28Resource4typeEv@Base 4:4.9.3
 _ZNK8Nepomuk28Resource5labelEv@Base 4:4.9.3
 _ZNK8Nepomuk28Resource5typesEv@Base 4:4.9.3
 _ZNK8Nepomuk28Resource6existsEv@Base 4:4.9.3
 _ZNK8Nepomuk28Resource6isFileEv@Base 4:4.9.3
 _ZNK8Nepomuk28Resource6ratingEv@Base 4:4.9.3
 _ZNK8Nepomuk28Resource6toFileEv@Base 4:4.9.3
 _ZNK8Nepomuk28Resource7hasTypeERK4QUrl@Base 4:4.9.3
 _ZNK8Nepomuk28Resource7isValidEv@Base 4:4.9.3
 _ZNK8Nepomuk28Resource7symbolsEv@Base 4:4.10.0
 _ZNK8Nepomuk28Resource8propertyERK4QUrl@Base 4:4.9.3
 _ZNK8Nepomuk28ResourceeqERKS0_@Base 4:4.9.3
 _ZNK8Nepomuk28ResourceneERKS0_@Base 4:4.9.3
 _ZTIN8Nepomuk214SimpleResourceE@Base 4:4.9.3
 _ZTIN8Nepomuk215ResourceManagerE@Base 4:4.9.3
 _ZTIN8Nepomuk215ResourceWatcherE@Base 4:4.9.3
 _ZTIN8Nepomuk217CreateResourceJobE@Base 4:4.9.3
 _ZTIN8Nepomuk217StoreResourcesJobE@Base 4:4.9.3
 _ZTIN8Nepomuk220DescribeResourcesJobE@Base 4:4.9.3
 _ZTIN8Nepomuk23TagE@Base 4:4.9.3
 _ZTIN8Nepomuk24FileE@Base 4:4.9.3
 _ZTIN8Nepomuk25Query18QueryServiceClientE@Base 4:4.9.3
 _ZTIN8Nepomuk25Types5ClassE@Base 4:4.9.3
 _ZTIN8Nepomuk25Types6EntityE@Base 4:4.9.3
 _ZTIN8Nepomuk25Types8OntologyE@Base 4:4.9.3
 _ZTIN8Nepomuk25Types8PropertyE@Base 4:4.9.3
 _ZTIN8Nepomuk27ServiceE@Base 4:4.9.3
 _ZTIN8Nepomuk28ResourceE@Base 4:4.9.3
 _ZTSN8Nepomuk214SimpleResourceE@Base 4:4.9.3
 _ZTSN8Nepomuk215ResourceManagerE@Base 4:4.9.3
 _ZTSN8Nepomuk215ResourceWatcherE@Base 4:4.9.3
 _ZTSN8Nepomuk217CreateResourceJobE@Base 4:4.9.3
 _ZTSN8Nepomuk217StoreResourcesJobE@Base 4:4.9.3
 _ZTSN8Nepomuk220DescribeResourcesJobE@Base 4:4.9.3
 _ZTSN8Nepomuk23TagE@Base 4:4.9.3
 _ZTSN8Nepomuk24FileE@Base 4:4.9.3
 _ZTSN8Nepomuk25Query18QueryServiceClientE@Base 4:4.9.3
 _ZTSN8Nepomuk25Types5ClassE@Base 4:4.9.3
 _ZTSN8Nepomuk25Types6EntityE@Base 4:4.9.3
 _ZTSN8Nepomuk25Types8OntologyE@Base 4:4.9.3
 _ZTSN8Nepomuk25Types8PropertyE@Base 4:4.9.3
 _ZTSN8Nepomuk27ServiceE@Base 4:4.9.3
 _ZTSN8Nepomuk28ResourceE@Base 4:4.9.3
 _ZTVN8Nepomuk214SimpleResourceE@Base 4:4.9.3
 _ZTVN8Nepomuk215ResourceManagerE@Base 4:4.9.3
 _ZTVN8Nepomuk215ResourceWatcherE@Base 4:4.9.3
 _ZTVN8Nepomuk217CreateResourceJobE@Base 4:4.9.3
 _ZTVN8Nepomuk217StoreResourcesJobE@Base 4:4.9.3
 _ZTVN8Nepomuk220DescribeResourcesJobE@Base 4:4.9.3
 _ZTVN8Nepomuk23TagE@Base 4:4.9.3
 _ZTVN8Nepomuk24FileE@Base 4:4.9.3
 _ZTVN8Nepomuk25Query18QueryServiceClientE@Base 4:4.9.3
 _ZTVN8Nepomuk25Types5ClassE@Base 4:4.9.3
 _ZTVN8Nepomuk25Types6EntityE@Base 4:4.9.3
 _ZTVN8Nepomuk25Types8OntologyE@Base 4:4.9.3
 _ZTVN8Nepomuk25Types8PropertyE@Base 4:4.9.3
 _ZTVN8Nepomuk27ServiceE@Base 4:4.9.3
 _ZTVN8Nepomuk28ResourceE@Base 4:4.9.3
 _Zls6QDebugRKN8Nepomuk25Query4TermE@Base 4:4.9.3
 _Zls6QDebugRKN8Nepomuk25Query5QueryE@Base 4:4.9.3
 _Zls6QDebugRKN8Nepomuk27VariantE@Base 4:4.9.3
 _ZlsR13QDBusArgumentRKN7Soprano4NodeE@Base 4:4.9.3
 _ZlsR13QDBusArgumentRKN8Nepomuk25Query6ResultE@Base 4:4.9.3
 _ZrsRK13QDBusArgumentRN7Soprano4NodeE@Base 4:4.9.3
 _ZrsRK13QDBusArgumentRN8Nepomuk25Query6ResultE@Base 4:4.9.3
